00000000  E802000000        call 0x7
00000005  EBFE              jmp short 0x5
00000007  55                push ebp
00000008  89E5              mov ebp,esp
0000000A  83EC28            sub esp,byte +0x28
0000000D  C705F84101000491  mov dword [dword 0x141f8],0x9104
         -0000
00000017  C705004201000091  mov dword [dword 0x14200],0x9100
         -0000
00000021  C705A04000000000  mov dword [dword 0x40a0],0x0
         -0000
0000002B  E87A130000        call 0x13aa
00000030  C705E04101005000  mov dword [dword 0x141e0],0x50
         -0000
0000003A  C705E44101001900  mov dword [dword 0x141e4],0x19
         -0000
00000044  C705E84101000000  mov dword [dword 0x141e8],0x0
         -0000
0000004E  C705EC4101000000  mov dword [dword 0x141ec],0x0
         -0000
00000058  C705F04101000000  mov dword [dword 0x141f0],0x0
         -0000
00000062  C705F44101000080  mov dword [dword 0x141f4],0xb8000
         -0B00
0000006C  C745EC00000000    mov dword [ebp-0x14],0x0
00000073  C705C0400000E041  mov dword [dword 0x40c0],0x141e0
         -0100
0000007D  C745F400000000    mov dword [ebp-0xc],0x0
00000084  EB0E              jmp short 0x94
00000086  8B45F4            mov eax,[ebp-0xc]
00000089  05C4400000        add eax,0x40c4
0000008E  C60000            mov byte [eax],0x0
00000091  FF45F4            inc dword [ebp-0xc]
00000094  817DF4FF000000    cmp dword [ebp-0xc],0xff
0000009B  7EE9              jng 0x86
0000009D  C605C441000000    mov byte [dword 0x41c4],0x0
000000A4  83EC08            sub esp,byte +0x8
000000A7  6880300000        push dword 0x3080
000000AC  68E0410100        push dword 0x141e0
000000B1  E835060000        call 0x6eb
000000B6  83C410            add esp,byte +0x10
000000B9  83EC08            sub esp,byte +0x8
000000BC  688E300000        push dword 0x308e
000000C1  68E0410100        push dword 0x141e0
000000C6  E820060000        call 0x6eb
000000CB  83C410            add esp,byte +0x10
000000CE  FB                sti
000000CF  E852090000        call 0xa26
000000D4  C745F000000000    mov dword [ebp-0x10],0x0
000000DB  EB11              jmp short 0xee
000000DD  83EC0C            sub esp,byte +0xc
000000E0  FF75F0            push dword [ebp-0x10]
000000E3  E8CC080000        call 0x9b4
000000E8  83C410            add esp,byte +0x10
000000EB  FF45F0            inc dword [ebp-0x10]
000000EE  837DF031          cmp dword [ebp-0x10],byte +0x31
000000F2  7EE9              jng 0xdd
000000F4  E8F8070000        call 0x8f1
000000F9  E8CA070000        call 0x8c8
000000FE  8945E8            mov [ebp-0x18],eax
00000101  8B45E8            mov eax,[ebp-0x18]
00000104  C1E00C            shl eax,byte 0xc
00000107  8945E4            mov [ebp-0x1c],eax
0000010A  83EC0C            sub esp,byte +0xc
0000010D  FF75E4            push dword [ebp-0x1c]
00000110  E8061B0000        call 0x1c1b
00000115  83C410            add esp,byte +0x10
00000118  A1A4400000        mov eax,[0x40a4]
0000011D  83EC08            sub esp,byte +0x8
00000120  50                push eax
00000121  6800000100        push dword 0x10000
00000126  E853180000        call 0x197e
0000012B  83C410            add esp,byte +0x10
0000012E  83EC08            sub esp,byte +0x8
00000131  50                push eax
00000132  FF75E4            push dword [ebp-0x1c]
00000135  E8931D0000        call 0x1ecd
0000013A  83C410            add esp,byte +0x10
0000013D  83EC0C            sub esp,byte +0xc
00000140  FF75E4            push dword [ebp-0x1c]
00000143  E8181F0000        call 0x2060
00000148  83C410            add esp,byte +0x10
0000014B  E81E1F0000        call 0x206e
00000150  83EC08            sub esp,byte +0x8
00000153  68A5300000        push dword 0x30a5
00000158  68E0410100        push dword 0x141e0
0000015D  E889050000        call 0x6eb
00000162  83C410            add esp,byte +0x10
00000165  83EC08            sub esp,byte +0x8
00000168  6A0A              push byte +0xa
0000016A  68E0410100        push dword 0x141e0
0000016F  E8A4040000        call 0x618
00000174  83C410            add esp,byte +0x10
00000177  E8020C0000        call 0xd7e
0000017C  83EC0C            sub esp,byte +0xc
0000017F  68C0400000        push dword 0x40c0
00000184  E8B00B0000        call 0xd39
00000189  83C410            add esp,byte +0x10
0000018C  A1F4410100        mov eax,[0x141f4]
00000191  C60030            mov byte [eax],0x30
00000194  A1F4410100        mov eax,[0x141f4]
00000199  40                inc eax
0000019A  C60007            mov byte [eax],0x7
0000019D  90                nop
0000019E  C9                leave
0000019F  C3                ret
000001A0  60                pusha
000001A1  668CD8            mov ax,ds
000001A4  50                push eax
000001A5  66B81000          mov ax,0x10
000001A9  8ED8              mov ds,eax
000001AB  8EC0              mov es,eax
000001AD  8EE0              mov fs,eax
000001AF  8EE8              mov gs,eax
000001B1  E8C9160000        call 0x187f
000001B6  58                pop eax
000001B7  8ED8              mov ds,eax
000001B9  8EC0              mov es,eax
000001BB  8EE0              mov fs,eax
000001BD  8EE8              mov gs,eax
000001BF  61                popa
000001C0  83C408            add esp,byte +0x8
000001C3  FB                sti
000001C4  CF                iret
000001C5  60                pusha
000001C6  668CD8            mov ax,ds
000001C9  50                push eax
000001CA  66B81000          mov ax,0x10
000001CE  8ED8              mov ds,eax
000001D0  8EC0              mov es,eax
000001D2  8EE0              mov fs,eax
000001D4  8EE8              mov gs,eax
000001D6  E82F160000        call 0x180a
000001DB  5B                pop ebx
000001DC  8EDB              mov ds,ebx
000001DE  8EC3              mov es,ebx
000001E0  8EE3              mov fs,ebx
000001E2  8EEB              mov gs,ebx
000001E4  61                popa
000001E5  83C408            add esp,byte +0x8
000001E8  FB                sti
000001E9  CF                iret
000001EA  FA                cli
000001EB  6A00              push byte +0x0
000001ED  6A00              push byte +0x0
000001EF  EBAF              jmp short 0x1a0
000001F1  FA                cli
000001F2  6A00              push byte +0x0
000001F4  6A01              push byte +0x1
000001F6  EBA8              jmp short 0x1a0
000001F8  FA                cli
000001F9  6A00              push byte +0x0
000001FB  6A02              push byte +0x2
000001FD  EBA1              jmp short 0x1a0
000001FF  FA                cli
00000200  6A00              push byte +0x0
00000202  6A03              push byte +0x3
00000204  EB9A              jmp short 0x1a0
00000206  FA                cli
00000207  6A00              push byte +0x0
00000209  6A04              push byte +0x4
0000020B  EB93              jmp short 0x1a0
0000020D  FA                cli
0000020E  6A00              push byte +0x0
00000210  6A05              push byte +0x5
00000212  EB8C              jmp short 0x1a0
00000214  FA                cli
00000215  6A00              push byte +0x0
00000217  6A06              push byte +0x6
00000219  EB85              jmp short 0x1a0
0000021B  FA                cli
0000021C  6A00              push byte +0x0
0000021E  6A07              push byte +0x7
00000220  E97BFFFFFF        jmp 0x1a0
00000225  FA                cli
00000226  6A08              push byte +0x8
00000228  E973FFFFFF        jmp 0x1a0
0000022D  FA                cli
0000022E  6A00              push byte +0x0
00000230  6A09              push byte +0x9
00000232  E969FFFFFF        jmp 0x1a0
00000237  FA                cli
00000238  6A0A              push byte +0xa
0000023A  E961FFFFFF        jmp 0x1a0
0000023F  FA                cli
00000240  6A0B              push byte +0xb
00000242  E959FFFFFF        jmp 0x1a0
00000247  FA                cli
00000248  6A0C              push byte +0xc
0000024A  E951FFFFFF        jmp 0x1a0
0000024F  FA                cli
00000250  6A0D              push byte +0xd
00000252  E949FFFFFF        jmp 0x1a0
00000257  FA                cli
00000258  6A0E              push byte +0xe
0000025A  E941FFFFFF        jmp 0x1a0
0000025F  FA                cli
00000260  6A00              push byte +0x0
00000262  6A0F              push byte +0xf
00000264  E937FFFFFF        jmp 0x1a0
00000269  FA                cli
0000026A  6A00              push byte +0x0
0000026C  6A10              push byte +0x10
0000026E  E92DFFFFFF        jmp 0x1a0
00000273  FA                cli
00000274  6A00              push byte +0x0
00000276  6A11              push byte +0x11
00000278  E923FFFFFF        jmp 0x1a0
0000027D  FA                cli
0000027E  6A00              push byte +0x0
00000280  6A12              push byte +0x12
00000282  E919FFFFFF        jmp 0x1a0
00000287  FA                cli
00000288  6A00              push byte +0x0
0000028A  6A13              push byte +0x13
0000028C  E90FFFFFFF        jmp 0x1a0
00000291  FA                cli
00000292  6A00              push byte +0x0
00000294  6A14              push byte +0x14
00000296  E905FFFFFF        jmp 0x1a0
0000029B  FA                cli
0000029C  6A00              push byte +0x0
0000029E  6A15              push byte +0x15
000002A0  E9FBFEFFFF        jmp 0x1a0
000002A5  FA                cli
000002A6  6A00              push byte +0x0
000002A8  6A16              push byte +0x16
000002AA  E9F1FEFFFF        jmp 0x1a0
000002AF  FA                cli
000002B0  6A00              push byte +0x0
000002B2  6A17              push byte +0x17
000002B4  E9E7FEFFFF        jmp 0x1a0
000002B9  FA                cli
000002BA  6A00              push byte +0x0
000002BC  6A18              push byte +0x18
000002BE  E9DDFEFFFF        jmp 0x1a0
000002C3  FA                cli
000002C4  6A00              push byte +0x0
000002C6  6A19              push byte +0x19
000002C8  E9D3FEFFFF        jmp 0x1a0
000002CD  FA                cli
000002CE  6A00              push byte +0x0
000002D0  6A1A              push byte +0x1a
000002D2  E9C9FEFFFF        jmp 0x1a0
000002D7  FA                cli
000002D8  6A00              push byte +0x0
000002DA  6A1B              push byte +0x1b
000002DC  E9BFFEFFFF        jmp 0x1a0
000002E1  FA                cli
000002E2  6A00              push byte +0x0
000002E4  6A1C              push byte +0x1c
000002E6  E9B5FEFFFF        jmp 0x1a0
000002EB  FA                cli
000002EC  6A00              push byte +0x0
000002EE  6A1D              push byte +0x1d
000002F0  E9ABFEFFFF        jmp 0x1a0
000002F5  FA                cli
000002F6  6A00              push byte +0x0
000002F8  6A1E              push byte +0x1e
000002FA  E9A1FEFFFF        jmp 0x1a0
000002FF  FA                cli
00000300  6A00              push byte +0x0
00000302  6A1F              push byte +0x1f
00000304  E997FEFFFF        jmp 0x1a0
00000309  FA                cli
0000030A  6A00              push byte +0x0
0000030C  6A20              push byte +0x20
0000030E  E9B2FEFFFF        jmp 0x1c5
00000313  FA                cli
00000314  6A01              push byte +0x1
00000316  6A21              push byte +0x21
00000318  E9A8FEFFFF        jmp 0x1c5
0000031D  FA                cli
0000031E  6A02              push byte +0x2
00000320  6A22              push byte +0x22
00000322  E99EFEFFFF        jmp 0x1c5
00000327  FA                cli
00000328  6A03              push byte +0x3
0000032A  6A23              push byte +0x23
0000032C  E994FEFFFF        jmp 0x1c5
00000331  FA                cli
00000332  6A04              push byte +0x4
00000334  6A24              push byte +0x24
00000336  E98AFEFFFF        jmp 0x1c5
0000033B  FA                cli
0000033C  6A05              push byte +0x5
0000033E  6A25              push byte +0x25
00000340  E980FEFFFF        jmp 0x1c5
00000345  FA                cli
00000346  6A06              push byte +0x6
00000348  6A26              push byte +0x26
0000034A  E976FEFFFF        jmp 0x1c5
0000034F  FA                cli
00000350  6A07              push byte +0x7
00000352  6A27              push byte +0x27
00000354  E96CFEFFFF        jmp 0x1c5
00000359  FA                cli
0000035A  6A08              push byte +0x8
0000035C  6A28              push byte +0x28
0000035E  E962FEFFFF        jmp 0x1c5
00000363  FA                cli
00000364  6A09              push byte +0x9
00000366  6A29              push byte +0x29
00000368  E958FEFFFF        jmp 0x1c5
0000036D  FA                cli
0000036E  6A0A              push byte +0xa
00000370  6A2A              push byte +0x2a
00000372  E94EFEFFFF        jmp 0x1c5
00000377  FA                cli
00000378  6A0B              push byte +0xb
0000037A  6A2B              push byte +0x2b
0000037C  E944FEFFFF        jmp 0x1c5
00000381  FA                cli
00000382  6A0C              push byte +0xc
00000384  6A2C              push byte +0x2c
00000386  E93AFEFFFF        jmp 0x1c5
0000038B  FA                cli
0000038C  6A0D              push byte +0xd
0000038E  6A2D              push byte +0x2d
00000390  E930FEFFFF        jmp 0x1c5
00000395  FA                cli
00000396  6A0E              push byte +0xe
00000398  6A2E              push byte +0x2e
0000039A  E926FEFFFF        jmp 0x1c5
0000039F  FA                cli
000003A0  6A0F              push byte +0xf
000003A2  6A2F              push byte +0x2f
000003A4  E91CFEFFFF        jmp 0x1c5
000003A9  FA                cli
000003AA  6A00              push byte +0x0
000003AC  6A30              push byte +0x30
000003AE  E9EDFDFFFF        jmp 0x1a0
000003B3  55                push ebp
000003B4  89E5              mov ebp,esp
000003B6  83EC04            sub esp,byte +0x4
000003B9  8B450C            mov eax,[ebp+0xc]
000003BC  8845FC            mov [ebp-0x4],al
000003BF  8B4508            mov eax,[ebp+0x8]
000003C2  8B4010            mov eax,[eax+0x10]
000003C5  83F801            cmp eax,byte +0x1
000003C8  751D              jnz 0x3e7
000003CA  8B4508            mov eax,[ebp+0x8]
000003CD  8B5014            mov edx,[eax+0x14]
000003D0  8B4508            mov eax,[ebp+0x8]
000003D3  8B00              mov eax,[eax]
000003D5  0FAF4514          imul eax,[ebp+0x14]
000003D9  89C1              mov ecx,eax
000003DB  8B4510            mov eax,[ebp+0x10]
000003DE  01C8              add eax,ecx
000003E0  01C2              add edx,eax
000003E2  8A45FC            mov al,[ebp-0x4]
000003E5  8802              mov [edx],al
000003E7  90                nop
000003E8  C9                leave
000003E9  C3                ret
000003EA  55                push ebp
000003EB  89E5              mov ebp,esp
000003ED  83EC18            sub esp,byte +0x18
000003F0  8B550C            mov edx,[ebp+0xc]
000003F3  8B4510            mov eax,[ebp+0x10]
000003F6  8855EC            mov [ebp-0x14],dl
000003F9  8845E8            mov [ebp-0x18],al
000003FC  8B4508            mov eax,[ebp+0x8]
000003FF  8B4010            mov eax,[eax+0x10]
00000402  85C0              test eax,eax
00000404  754C              jnz 0x452
00000406  8B4508            mov eax,[ebp+0x8]
00000409  8B4004            mov eax,[eax+0x4]
0000040C  394518            cmp [ebp+0x18],eax
0000040F  7D41              jnl 0x452
00000411  837D1800          cmp dword [ebp+0x18],byte +0x0
00000415  783B              js 0x452
00000417  8B4508            mov eax,[ebp+0x8]
0000041A  8B4014            mov eax,[eax+0x14]
0000041D  8945FC            mov [ebp-0x4],eax
00000420  8B4508            mov eax,[ebp+0x8]
00000423  8B00              mov eax,[eax]
00000425  0FAF4518          imul eax,[ebp+0x18]
00000429  89C2              mov edx,eax
0000042B  8B4514            mov eax,[ebp+0x14]
0000042E  01D0              add eax,edx
00000430  01C0              add eax,eax
00000432  8945F8            mov [ebp-0x8],eax
00000435  8B55F8            mov edx,[ebp-0x8]
00000438  8B45FC            mov eax,[ebp-0x4]
0000043B  01C2              add edx,eax
0000043D  8A45EC            mov al,[ebp-0x14]
00000440  8802              mov [edx],al
00000442  8B45F8            mov eax,[ebp-0x8]
00000445  8D5001            lea edx,[eax+0x1]
00000448  8B45FC            mov eax,[ebp-0x4]
0000044B  01C2              add edx,eax
0000044D  8A45E8            mov al,[ebp-0x18]
00000450  8802              mov [edx],al
00000452  90                nop
00000453  C9                leave
00000454  C3                ret
00000455  55                push ebp
00000456  89E5              mov ebp,esp
00000458  83EC14            sub esp,byte +0x14
0000045B  8B450C            mov eax,[ebp+0xc]
0000045E  8845EC            mov [ebp-0x14],al
00000461  C645FF07          mov byte [ebp-0x1],0x7
00000465  0FBE55FF          movsx edx,byte [ebp-0x1]
00000469  0FBE45EC          movsx eax,byte [ebp-0x14]
0000046D  FF7514            push dword [ebp+0x14]
00000470  FF7510            push dword [ebp+0x10]
00000473  52                push edx
00000474  50                push eax
00000475  FF7508            push dword [ebp+0x8]
00000478  E86DFFFFFF        call 0x3ea
0000047D  83C414            add esp,byte +0x14
00000480  90                nop
00000481  C9                leave
00000482  C3                ret
00000483  55                push ebp
00000484  89E5              mov ebp,esp
00000486  83EC10            sub esp,byte +0x10
00000489  8B4508            mov eax,[ebp+0x8]
0000048C  8B4010            mov eax,[eax+0x10]
0000048F  85C0              test eax,eax
00000491  0F85CB000000      jnz near 0x562
00000497  8B4508            mov eax,[ebp+0x8]
0000049A  8B4014            mov eax,[eax+0x14]
0000049D  8945F4            mov [ebp-0xc],eax
000004A0  C745FC00000000    mov dword [ebp-0x4],0x0
000004A7  EB28              jmp short 0x4d1
000004A9  8B4508            mov eax,[ebp+0x8]
000004AC  8B00              mov eax,[eax]
000004AE  0FAF450C          imul eax,[ebp+0xc]
000004B2  01C0              add eax,eax
000004B4  89C2              mov edx,eax
000004B6  8B45FC            mov eax,[ebp-0x4]
000004B9  01D0              add eax,edx
000004BB  89C2              mov edx,eax
000004BD  8B45F4            mov eax,[ebp-0xc]
000004C0  01D0              add eax,edx
000004C2  8B4DFC            mov ecx,[ebp-0x4]
000004C5  8B55F4            mov edx,[ebp-0xc]
000004C8  01CA              add edx,ecx
000004CA  8A00              mov al,[eax]
000004CC  8802              mov [edx],al
000004CE  FF45FC            inc dword [ebp-0x4]
000004D1  8B4508            mov eax,[ebp+0x8]
000004D4  8B10              mov edx,[eax]
000004D6  8B4508            mov eax,[ebp+0x8]
000004D9  8B4004            mov eax,[eax+0x4]
000004DC  2B450C            sub eax,[ebp+0xc]
000004DF  0FAFC2            imul eax,edx
000004E2  01C0              add eax,eax
000004E4  3945FC            cmp [ebp-0x4],eax
000004E7  7CC0              jl 0x4a9
000004E9  8B4508            mov eax,[ebp+0x8]
000004EC  8B10              mov edx,[eax]
000004EE  8B4508            mov eax,[ebp+0x8]
000004F1  8B4004            mov eax,[eax+0x4]
000004F4  2B450C            sub eax,[ebp+0xc]
000004F7  0FAFC2            imul eax,edx
000004FA  01C0              add eax,eax
000004FC  8945F8            mov [ebp-0x8],eax
000004FF  EB1D              jmp short 0x51e
00000501  8B45F8            mov eax,[ebp-0x8]
00000504  85C0              test eax,eax
00000506  7905              jns 0x50d
00000508  B800000000        mov eax,0x0
0000050D  8945F0            mov [ebp-0x10],eax
00000510  8B55F0            mov edx,[ebp-0x10]
00000513  8B45F4            mov eax,[ebp-0xc]
00000516  01D0              add eax,edx
00000518  C60000            mov byte [eax],0x0
0000051B  FF45F8            inc dword [ebp-0x8]
0000051E  8B4508            mov eax,[ebp+0x8]
00000521  8B10              mov edx,[eax]
00000523  8B4508            mov eax,[ebp+0x8]
00000526  8B4004            mov eax,[eax+0x4]
00000529  0FAFC2            imul eax,edx
0000052C  01C0              add eax,eax
0000052E  3945F8            cmp [ebp-0x8],eax
00000531  7CCE              jl 0x501
00000533  8B4508            mov eax,[ebp+0x8]
00000536  8B400C            mov eax,[eax+0xc]
00000539  2B450C            sub eax,[ebp+0xc]
0000053C  89C2              mov edx,eax
0000053E  8B4508            mov eax,[ebp+0x8]
00000541  89500C            mov [eax+0xc],edx
00000544  8B4508            mov eax,[ebp+0x8]
00000547  8B400C            mov eax,[eax+0xc]
0000054A  85C0              test eax,eax
0000054C  7914              jns 0x562
0000054E  8B4508            mov eax,[ebp+0x8]
00000551  C7400C00000000    mov dword [eax+0xc],0x0
00000558  8B4508            mov eax,[ebp+0x8]
0000055B  C7400800000000    mov dword [eax+0x8],0x0
00000562  90                nop
00000563  C9                leave
00000564  C3                ret
00000565  55                push ebp
00000566  89E5              mov ebp,esp
00000568  8B4508            mov eax,[ebp+0x8]
0000056B  8B4010            mov eax,[eax+0x10]
0000056E  85C0              test eax,eax
00000570  7536              jnz 0x5a8
00000572  8B4508            mov eax,[ebp+0x8]
00000575  C7400800000000    mov dword [eax+0x8],0x0
0000057C  8B4508            mov eax,[ebp+0x8]
0000057F  8B400C            mov eax,[eax+0xc]
00000582  8D5001            lea edx,[eax+0x1]
00000585  8B4508            mov eax,[ebp+0x8]
00000588  89500C            mov [eax+0xc],edx
0000058B  8B4508            mov eax,[ebp+0x8]
0000058E  8B500C            mov edx,[eax+0xc]
00000591  8B4508            mov eax,[ebp+0x8]
00000594  8B4004            mov eax,[eax+0x4]
00000597  39C2              cmp edx,eax
00000599  750D              jnz 0x5a8
0000059B  6A01              push byte +0x1
0000059D  FF7508            push dword [ebp+0x8]
000005A0  E8DEFEFFFF        call 0x483
000005A5  83C408            add esp,byte +0x8
000005A8  90                nop
000005A9  C9                leave
000005AA  C3                ret
000005AB  55                push ebp
000005AC  89E5              mov ebp,esp
000005AE  8B4508            mov eax,[ebp+0x8]
000005B1  8B4010            mov eax,[eax+0x10]
000005B4  85C0              test eax,eax
000005B6  755D              jnz 0x615
000005B8  8B4508            mov eax,[ebp+0x8]
000005BB  8B4008            mov eax,[eax+0x8]
000005BE  85C0              test eax,eax
000005C0  7529              jnz 0x5eb
000005C2  8B4508            mov eax,[ebp+0x8]
000005C5  8B00              mov eax,[eax]
000005C7  8D50FF            lea edx,[eax-0x1]
000005CA  8B4508            mov eax,[ebp+0x8]
000005CD  895008            mov [eax+0x8],edx
000005D0  8B4508            mov eax,[ebp+0x8]
000005D3  8B400C            mov eax,[eax+0xc]
000005D6  85C0              test eax,eax
000005D8  7E20              jng 0x5fa
000005DA  8B4508            mov eax,[ebp+0x8]
000005DD  8B400C            mov eax,[eax+0xc]
000005E0  8D50FF            lea edx,[eax-0x1]
000005E3  8B4508            mov eax,[ebp+0x8]
000005E6  89500C            mov [eax+0xc],edx
000005E9  EB0F              jmp short 0x5fa
000005EB  8B4508            mov eax,[ebp+0x8]
000005EE  8B4008            mov eax,[eax+0x8]
000005F1  8D50FF            lea edx,[eax-0x1]
000005F4  8B4508            mov eax,[ebp+0x8]
000005F7  895008            mov [eax+0x8],edx
000005FA  8B4508            mov eax,[ebp+0x8]
000005FD  8B500C            mov edx,[eax+0xc]
00000600  8B4508            mov eax,[ebp+0x8]
00000603  8B4008            mov eax,[eax+0x8]
00000606  52                push edx
00000607  50                push eax
00000608  6A00              push byte +0x0
0000060A  FF7508            push dword [ebp+0x8]
0000060D  E843FEFFFF        call 0x455
00000612  83C410            add esp,byte +0x10
00000615  90                nop
00000616  C9                leave
00000617  C3                ret
00000618  55                push ebp
00000619  89E5              mov ebp,esp
0000061B  83EC04            sub esp,byte +0x4
0000061E  8B450C            mov eax,[ebp+0xc]
00000621  8845FC            mov [ebp-0x4],al
00000624  8B4508            mov eax,[ebp+0x8]
00000627  8B4010            mov eax,[eax+0x10]
0000062A  85C0              test eax,eax
0000062C  755D              jnz 0x68b
0000062E  807DFC0A          cmp byte [ebp-0x4],0xa
00000632  750D              jnz 0x641
00000634  FF7508            push dword [ebp+0x8]
00000637  E829FFFFFF        call 0x565
0000063C  83C404            add esp,byte +0x4
0000063F  EB4A              jmp short 0x68b
00000641  8B4508            mov eax,[ebp+0x8]
00000644  8B480C            mov ecx,[eax+0xc]
00000647  8B4508            mov eax,[ebp+0x8]
0000064A  8B5008            mov edx,[eax+0x8]
0000064D  0FBE45FC          movsx eax,byte [ebp-0x4]
00000651  51                push ecx
00000652  52                push edx
00000653  50                push eax
00000654  FF7508            push dword [ebp+0x8]
00000657  E8F9FDFFFF        call 0x455
0000065C  83C410            add esp,byte +0x10
0000065F  8B4508            mov eax,[ebp+0x8]
00000662  8B5008            mov edx,[eax+0x8]
00000665  8B4508            mov eax,[ebp+0x8]
00000668  8B00              mov eax,[eax]
0000066A  48                dec eax
0000066B  39C2              cmp edx,eax
0000066D  750D              jnz 0x67c
0000066F  FF7508            push dword [ebp+0x8]
00000672  E8EEFEFFFF        call 0x565
00000677  83C404            add esp,byte +0x4
0000067A  EB0F              jmp short 0x68b
0000067C  8B4508            mov eax,[ebp+0x8]
0000067F  8B4008            mov eax,[eax+0x8]
00000682  8D5001            lea edx,[eax+0x1]
00000685  8B4508            mov eax,[ebp+0x8]
00000688  895008            mov [eax+0x8],edx
0000068B  90                nop
0000068C  C9                leave
0000068D  C3                ret
0000068E  55                push ebp
0000068F  89E5              mov ebp,esp
00000691  83EC10            sub esp,byte +0x10
00000694  8B4508            mov eax,[ebp+0x8]
00000697  8B4010            mov eax,[eax+0x10]
0000069A  85C0              test eax,eax
0000069C  7512              jnz 0x6b0
0000069E  8B4508            mov eax,[ebp+0x8]
000006A1  8B4004            mov eax,[eax+0x4]
000006A4  50                push eax
000006A5  FF7508            push dword [ebp+0x8]
000006A8  E8D6FDFFFF        call 0x483
000006AD  83C408            add esp,byte +0x8
000006B0  8B4508            mov eax,[ebp+0x8]
000006B3  8B4010            mov eax,[eax+0x10]
000006B6  83F801            cmp eax,byte +0x1
000006B9  752D              jnz 0x6e8
000006BB  C745FC00000000    mov dword [ebp-0x4],0x0
000006C2  EB11              jmp short 0x6d5
000006C4  8B4508            mov eax,[ebp+0x8]
000006C7  8B5014            mov edx,[eax+0x14]
000006CA  8B45FC            mov eax,[ebp-0x4]
000006CD  01D0              add eax,edx
000006CF  C60000            mov byte [eax],0x0
000006D2  FF45FC            inc dword [ebp-0x4]
000006D5  8B4508            mov eax,[ebp+0x8]
000006D8  8B10              mov edx,[eax]
000006DA  8B4508            mov eax,[ebp+0x8]
000006DD  8B4004            mov eax,[eax+0x4]
000006E0  0FAFC2            imul eax,edx
000006E3  3945FC            cmp [ebp-0x4],eax
000006E6  7CDC              jl 0x6c4
000006E8  90                nop
000006E9  C9                leave
000006EA  C3                ret
000006EB  55                push ebp
000006EC  89E5              mov ebp,esp
000006EE  83EC10            sub esp,byte +0x10
000006F1  C745FC00000000    mov dword [ebp-0x4],0x0
000006F8  EB1C              jmp short 0x716
000006FA  8B55FC            mov edx,[ebp-0x4]
000006FD  8B450C            mov eax,[ebp+0xc]
00000700  01D0              add eax,edx
00000702  8A00              mov al,[eax]
00000704  0FBEC0            movsx eax,al
00000707  50                push eax
00000708  FF7508            push dword [ebp+0x8]
0000070B  E808FFFFFF        call 0x618
00000710  83C408            add esp,byte +0x8
00000713  FF45FC            inc dword [ebp-0x4]
00000716  8B55FC            mov edx,[ebp-0x4]
00000719  8B450C            mov eax,[ebp+0xc]
0000071C  01D0              add eax,edx
0000071E  8A00              mov al,[eax]
00000720  84C0              test al,al
00000722  75D6              jnz 0x6fa
00000724  90                nop
00000725  90                nop
00000726  C9                leave
00000727  C3                ret
00000728  55                push ebp
00000729  89E5              mov ebp,esp
0000072B  83EC38            sub esp,byte +0x38
0000072E  C745F400000000    mov dword [ebp-0xc],0x0
00000735  E940010000        jmp 0x87a
0000073A  8B0DF8410100      mov ecx,[dword 0x141f8]
00000740  8B55F4            mov edx,[ebp-0xc]
00000743  89D0              mov eax,edx
00000745  01C0              add eax,eax
00000747  01D0              add eax,edx
00000749  C1E003            shl eax,byte 0x3
0000074C  01C8              add eax,ecx
0000074E  8B5004            mov edx,[eax+0x4]
00000751  8B00              mov eax,[eax]
00000753  83EC0C            sub esp,byte +0xc
00000756  6A10              push byte +0x10
00000758  8D4DE4            lea ecx,[ebp-0x1c]
0000075B  51                push ecx
0000075C  6A2B              push byte +0x2b
0000075E  52                push edx
0000075F  50                push eax
00000760  E8B4130000        call 0x1b19
00000765  83C420            add esp,byte +0x20
00000768  8B0DF8410100      mov ecx,[dword 0x141f8]
0000076E  8B55F4            mov edx,[ebp-0xc]
00000771  89D0              mov eax,edx
00000773  01C0              add eax,eax
00000775  01D0              add eax,edx
00000777  C1E003            shl eax,byte 0x3
0000077A  01C8              add eax,ecx
0000077C  8B500C            mov edx,[eax+0xc]
0000077F  8B4008            mov eax,[eax+0x8]
00000782  83EC0C            sub esp,byte +0xc
00000785  6A10              push byte +0x10
00000787  8D4DD4            lea ecx,[ebp-0x2c]
0000078A  51                push ecx
0000078B  6A2B              push byte +0x2b
0000078D  52                push edx
0000078E  50                push eax
0000078F  E885130000        call 0x1b19
00000794  83C420            add esp,byte +0x20
00000797  83EC08            sub esp,byte +0x8
0000079A  8D45E4            lea eax,[ebp-0x1c]
0000079D  50                push eax
0000079E  FF7508            push dword [ebp+0x8]
000007A1  E845FFFFFF        call 0x6eb
000007A6  83C410            add esp,byte +0x10
000007A9  83EC08            sub esp,byte +0x8
000007AC  6A7C              push byte +0x7c
000007AE  FF7508            push dword [ebp+0x8]
000007B1  E862FEFFFF        call 0x618
000007B6  83C410            add esp,byte +0x10
000007B9  83EC08            sub esp,byte +0x8
000007BC  8D45D4            lea eax,[ebp-0x2c]
000007BF  50                push eax
000007C0  FF7508            push dword [ebp+0x8]
000007C3  E823FFFFFF        call 0x6eb
000007C8  83C410            add esp,byte +0x10
000007CB  83EC08            sub esp,byte +0x8
000007CE  6A20              push byte +0x20
000007D0  FF7508            push dword [ebp+0x8]
000007D3  E840FEFFFF        call 0x618
000007D8  83C410            add esp,byte +0x10
000007DB  8B0DF8410100      mov ecx,[dword 0x141f8]
000007E1  8B55F4            mov edx,[ebp-0xc]
000007E4  89D0              mov eax,edx
000007E6  01C0              add eax,eax
000007E8  01D0              add eax,edx
000007EA  C1E003            shl eax,byte 0x3
000007ED  01C8              add eax,ecx
000007EF  8B4010            mov eax,[eax+0x10]
000007F2  85C0              test eax,eax
000007F4  7513              jnz 0x809
000007F6  83EC08            sub esp,byte +0x8
000007F9  68B4300000        push dword 0x30b4
000007FE  FF7508            push dword [ebp+0x8]
00000801  E8E5FEFFFF        call 0x6eb
00000806  83C410            add esp,byte +0x10
00000809  8B0DF8410100      mov ecx,[dword 0x141f8]
0000080F  8B55F4            mov edx,[ebp-0xc]
00000812  89D0              mov eax,edx
00000814  01C0              add eax,eax
00000816  01D0              add eax,edx
00000818  C1E003            shl eax,byte 0x3
0000081B  01C8              add eax,ecx
0000081D  8B4010            mov eax,[eax+0x10]
00000820  83F801            cmp eax,byte +0x1
00000823  7513              jnz 0x838
00000825  83EC08            sub esp,byte +0x8
00000828  68C2300000        push dword 0x30c2
0000082D  FF7508            push dword [ebp+0x8]
00000830  E8B6FEFFFF        call 0x6eb
00000835  83C410            add esp,byte +0x10
00000838  8B0DF8410100      mov ecx,[dword 0x141f8]
0000083E  8B55F4            mov edx,[ebp-0xc]
00000841  89D0              mov eax,edx
00000843  01C0              add eax,eax
00000845  01D0              add eax,edx
00000847  C1E003            shl eax,byte 0x3
0000084A  01C8              add eax,ecx
0000084C  8B4010            mov eax,[eax+0x10]
0000084F  83F801            cmp eax,byte +0x1
00000852  7613              jna 0x867
00000854  83EC08            sub esp,byte +0x8
00000857  68C9300000        push dword 0x30c9
0000085C  FF7508            push dword [ebp+0x8]
0000085F  E887FEFFFF        call 0x6eb
00000864  83C410            add esp,byte +0x10
00000867  83EC08            sub esp,byte +0x8
0000086A  6A0A              push byte +0xa
0000086C  FF7508            push dword [ebp+0x8]
0000086F  E8A4FDFFFF        call 0x618
00000874  83C410            add esp,byte +0x10
00000877  FF45F4            inc dword [ebp-0xc]
0000087A  A100420100        mov eax,[0x14200]
0000087F  8B00              mov eax,[eax]
00000881  3945F4            cmp [ebp-0xc],eax
00000884  0F8CB0FEFFFF      jl near 0x73a
0000088A  90                nop
0000088B  90                nop
0000088C  C9                leave
0000088D  C3                ret
0000088E  55                push ebp
0000088F  89E5              mov ebp,esp
00000891  8B4508            mov eax,[ebp+0x8]
00000894  85C0              test eax,eax
00000896  7903              jns 0x89b
00000898  83C007            add eax,byte +0x7
0000089B  C1F803            sar eax,byte 0x3
0000089E  8A80E0410000      mov al,[eax+0x41e0]
000008A4  0FB6D0            movzx edx,al
000008A7  8B4508            mov eax,[ebp+0x8]
000008AA  2507000080        and eax,0x80000007
000008AF  85C0              test eax,eax
000008B1  7905              jns 0x8b8
000008B3  48                dec eax
000008B4  83C8F8            or eax,byte -0x8
000008B7  40                inc eax
000008B8  88C1              mov cl,al
000008BA  D3FA              sar edx,cl
000008BC  89D0              mov eax,edx
000008BE  83E001            and eax,byte +0x1
000008C1  85C0              test eax,eax
000008C3  0F95C0            setnz al
000008C6  5D                pop ebp
000008C7  C3                ret
000008C8  55                push ebp
000008C9  89E5              mov ebp,esp
000008CB  83EC18            sub esp,byte +0x18
000008CE  A1FC410100        mov eax,[0x141fc]
000008D3  83EC0C            sub esp,byte +0xc
000008D6  50                push eax
000008D7  E8D8000000        call 0x9b4
000008DC  83C410            add esp,byte +0x10
000008DF  A1FC410100        mov eax,[0x141fc]
000008E4  8945F4            mov [ebp-0xc],eax
000008E7  E805000000        call 0x8f1
000008EC  8B45F4            mov eax,[ebp-0xc]
000008EF  C9                leave
000008F0  C3                ret
000008F1  55                push ebp
000008F2  89E5              mov ebp,esp
000008F4  83EC10            sub esp,byte +0x10
000008F7  A1FC410100        mov eax,[0x141fc]
000008FC  8945F8            mov [ebp-0x8],eax
000008FF  C745FC00000000    mov dword [ebp-0x4],0x0
00000906  8B45F8            mov eax,[ebp-0x8]
00000909  40                inc eax
0000090A  8945FC            mov [ebp-0x4],eax
0000090D  EB03              jmp short 0x912
0000090F  FF45FC            inc dword [ebp-0x4]
00000912  A1A4400000        mov eax,[0x40a4]
00000917  3945FC            cmp [ebp-0x4],eax
0000091A  7F0F              jg 0x92b
0000091C  FF75FC            push dword [ebp-0x4]
0000091F  E86AFFFFFF        call 0x88e
00000924  83C404            add esp,byte +0x4
00000927  84C0              test al,al
00000929  75E4              jnz 0x90f
0000092B  8B45FC            mov eax,[ebp-0x4]
0000092E  A3FC410100        mov [0x141fc],eax
00000933  90                nop
00000934  C9                leave
00000935  C3                ret
00000936  55                push ebp
00000937  89E5              mov ebp,esp
00000939  53                push ebx
0000093A  83EC10            sub esp,byte +0x10
0000093D  8B4508            mov eax,[ebp+0x8]
00000940  85C0              test eax,eax
00000942  7903              jns 0x947
00000944  83C007            add eax,byte +0x7
00000947  C1F803            sar eax,byte 0x3
0000094A  8A80E0410000      mov al,[eax+0x41e0]
00000950  8845FB            mov [ebp-0x5],al
00000953  8B4508            mov eax,[ebp+0x8]
00000956  2507000080        and eax,0x80000007
0000095B  85C0              test eax,eax
0000095D  7905              jns 0x964
0000095F  48                dec eax
00000960  83C8F8            or eax,byte -0x8
00000963  40                inc eax
00000964  8945F4            mov [ebp-0xc],eax
00000967  FF7508            push dword [ebp+0x8]
0000096A  E81FFFFFFF        call 0x88e
0000096F  83C404            add esp,byte +0x4
00000972  84C0              test al,al
00000974  7430              jz 0x9a6
00000976  8A55FB            mov dl,[ebp-0x5]
00000979  8B45F4            mov eax,[ebp-0xc]
0000097C  BB01000000        mov ebx,0x1
00000981  88C1              mov cl,al
00000983  D3E3              shl ebx,cl
00000985  89D8              mov eax,ebx
00000987  29C2              sub edx,eax
00000989  88D0              mov al,dl
0000098B  8845FB            mov [ebp-0x5],al
0000098E  8B4508            mov eax,[ebp+0x8]
00000991  85C0              test eax,eax
00000993  7903              jns 0x998
00000995  83C007            add eax,byte +0x7
00000998  C1F803            sar eax,byte 0x3
0000099B  89C2              mov edx,eax
0000099D  8A45FB            mov al,[ebp-0x5]
000009A0  8882E0410000      mov [edx+0x41e0],al
000009A6  8B4508            mov eax,[ebp+0x8]
000009A9  A3FC410100        mov [0x141fc],eax
000009AE  90                nop
000009AF  8B5DFC            mov ebx,[ebp-0x4]
000009B2  C9                leave
000009B3  C3                ret
000009B4  55                push ebp
000009B5  89E5              mov ebp,esp
000009B7  83EC10            sub esp,byte +0x10
000009BA  8B4508            mov eax,[ebp+0x8]
000009BD  85C0              test eax,eax
000009BF  7903              jns 0x9c4
000009C1  83C007            add eax,byte +0x7
000009C4  C1F803            sar eax,byte 0x3
000009C7  8A80E0410000      mov al,[eax+0x41e0]
000009CD  8845FF            mov [ebp-0x1],al
000009D0  8B4508            mov eax,[ebp+0x8]
000009D3  2507000080        and eax,0x80000007
000009D8  85C0              test eax,eax
000009DA  7905              jns 0x9e1
000009DC  48                dec eax
000009DD  83C8F8            or eax,byte -0x8
000009E0  40                inc eax
000009E1  8945F8            mov [ebp-0x8],eax
000009E4  FF7508            push dword [ebp+0x8]
000009E7  E8A2FEFFFF        call 0x88e
000009EC  83C404            add esp,byte +0x4
000009EF  84C0              test al,al
000009F1  7530              jnz 0xa23
000009F3  8B45F8            mov eax,[ebp-0x8]
000009F6  BA01000000        mov edx,0x1
000009FB  88C1              mov cl,al
000009FD  D3E2              shl edx,cl
000009FF  89D0              mov eax,edx
00000A01  88C2              mov dl,al
00000A03  8A45FF            mov al,[ebp-0x1]
00000A06  01D0              add eax,edx
00000A08  8845FF            mov [ebp-0x1],al
00000A0B  8B4508            mov eax,[ebp+0x8]
00000A0E  85C0              test eax,eax
00000A10  7903              jns 0xa15
00000A12  83C007            add eax,byte +0x7
00000A15  C1F803            sar eax,byte 0x3
00000A18  89C2              mov edx,eax
00000A1A  8A45FF            mov al,[ebp-0x1]
00000A1D  8882E0410000      mov [edx+0x41e0],al
00000A23  90                nop
00000A24  C9                leave
00000A25  C3                ret
00000A26  55                push ebp
00000A27  89E5              mov ebp,esp
00000A29  56                push esi
00000A2A  53                push ebx
00000A2B  83EC40            sub esp,byte +0x40
00000A2E  C745D800000000    mov dword [ebp-0x28],0x0
00000A35  C745DC00000000    mov dword [ebp-0x24],0x0
00000A3C  8B15F8410100      mov edx,[dword 0x141f8]
00000A42  A100420100        mov eax,[0x14200]
00000A47  8B00              mov eax,[eax]
00000A49  89C1              mov ecx,eax
00000A4B  89C8              mov eax,ecx
00000A4D  01C0              add eax,eax
00000A4F  01C8              add eax,ecx
00000A51  C1E003            shl eax,byte 0x3
00000A54  83E818            sub eax,byte +0x18
00000A57  01D0              add eax,edx
00000A59  8B08              mov ecx,[eax]
00000A5B  8B5804            mov ebx,[eax+0x4]
00000A5E  8B15F8410100      mov edx,[dword 0x141f8]
00000A64  A100420100        mov eax,[0x14200]
00000A69  8B00              mov eax,[eax]
00000A6B  89C6              mov esi,eax
00000A6D  89F0              mov eax,esi
00000A6F  01C0              add eax,eax
00000A71  01F0              add eax,esi
00000A73  C1E003            shl eax,byte 0x3
00000A76  83E818            sub eax,byte +0x18
00000A79  01D0              add eax,edx
00000A7B  8B500C            mov edx,[eax+0xc]
00000A7E  8B4008            mov eax,[eax+0x8]
00000A81  01C8              add eax,ecx
00000A83  11DA              adc edx,ebx
00000A85  0145D8            add [ebp-0x28],eax
00000A88  1155DC            adc [ebp-0x24],edx
00000A8B  8B45D8            mov eax,[ebp-0x28]
00000A8E  8B55DC            mov edx,[ebp-0x24]
00000A91  0FACD00C          shrd eax,edx,0xc
00000A95  C1EA0C            shr edx,byte 0xc
00000A98  A3A4400000        mov [0x40a4],eax
00000A9D  A1A4400000        mov eax,[0x40a4]
00000AA2  C1F803            sar eax,byte 0x3
00000AA5  99                cdq
00000AA6  8945D0            mov [ebp-0x30],eax
00000AA9  8955D4            mov [ebp-0x2c],edx
00000AAC  A1A4400000        mov eax,[0x40a4]
00000AB1  89C2              mov edx,eax
00000AB3  8B45D0            mov eax,[ebp-0x30]
00000AB6  C1E003            shl eax,byte 0x3
00000AB9  29C2              sub edx,eax
00000ABB  89D0              mov eax,edx
00000ABD  8945CC            mov [ebp-0x34],eax
00000AC0  B808000000        mov eax,0x8
00000AC5  2B45CC            sub eax,[ebp-0x34]
00000AC8  BA01000000        mov edx,0x1
00000ACD  88C1              mov cl,al
00000ACF  D3E2              shl edx,cl
00000AD1  89D0              mov eax,edx
00000AD3  F7D8              neg eax
00000AD5  8845CB            mov [ebp-0x35],al
00000AD8  A1A4400000        mov eax,[0x40a4]
00000ADD  8D50FF            lea edx,[eax-0x1]
00000AE0  8A45CB            mov al,[ebp-0x35]
00000AE3  8882E0410000      mov [edx+0x41e0],al
00000AE9  C745F400000000    mov dword [ebp-0xc],0x0
00000AF0  E9BF000000        jmp 0xbb4
00000AF5  8B0DF8410100      mov ecx,[dword 0x141f8]
00000AFB  8B55F4            mov edx,[ebp-0xc]
00000AFE  89D0              mov eax,edx
00000B00  01C0              add eax,eax
00000B02  01D0              add eax,edx
00000B04  C1E003            shl eax,byte 0x3
00000B07  01C8              add eax,ecx
00000B09  8B4010            mov eax,[eax+0x10]
00000B0C  83F801            cmp eax,byte +0x1
00000B0F  0F849C000000      jz near 0xbb1
00000B15  8B0DF8410100      mov ecx,[dword 0x141f8]
00000B1B  8B55F4            mov edx,[ebp-0xc]
00000B1E  89D0              mov eax,edx
00000B20  01C0              add eax,eax
00000B22  01D0              add eax,edx
00000B24  C1E003            shl eax,byte 0x3
00000B27  01C8              add eax,ecx
00000B29  8B5004            mov edx,[eax+0x4]
00000B2C  8B00              mov eax,[eax]
00000B2E  0FACD00C          shrd eax,edx,0xc
00000B32  C1EA0C            shr edx,byte 0xc
00000B35  8945C0            mov [ebp-0x40],eax
00000B38  8955C4            mov [ebp-0x3c],edx
00000B3B  8B0DF8410100      mov ecx,[dword 0x141f8]
00000B41  8B55F4            mov edx,[ebp-0xc]
00000B44  89D0              mov eax,edx
00000B46  01C0              add eax,eax
00000B48  01D0              add eax,edx
00000B4A  C1E003            shl eax,byte 0x3
00000B4D  01C8              add eax,ecx
00000B4F  8B08              mov ecx,[eax]
00000B51  8B5804            mov ebx,[eax+0x4]
00000B54  8B35F8410100      mov esi,[dword 0x141f8]
00000B5A  8B55F4            mov edx,[ebp-0xc]
00000B5D  89D0              mov eax,edx
00000B5F  01C0              add eax,eax
00000B61  01D0              add eax,edx
00000B63  C1E003            shl eax,byte 0x3
00000B66  01F0              add eax,esi
00000B68  8B500C            mov edx,[eax+0xc]
00000B6B  8B4008            mov eax,[eax+0x8]
00000B6E  01C8              add eax,ecx
00000B70  11DA              adc edx,ebx
00000B72  0FACD00C          shrd eax,edx,0xc
00000B76  C1EA0C            shr edx,byte 0xc
00000B79  8945B8            mov [ebp-0x48],eax
00000B7C  8955BC            mov [ebp-0x44],edx
00000B7F  8B45C0            mov eax,[ebp-0x40]
00000B82  8B55C4            mov edx,[ebp-0x3c]
00000B85  8945E8            mov [ebp-0x18],eax
00000B88  8955EC            mov [ebp-0x14],edx
00000B8B  EB14              jmp short 0xba1
00000B8D  8B45E8            mov eax,[ebp-0x18]
00000B90  50                push eax
00000B91  E81EFEFFFF        call 0x9b4
00000B96  83C404            add esp,byte +0x4
00000B99  8345E801          add dword [ebp-0x18],byte +0x1
00000B9D  8355EC00          adc dword [ebp-0x14],byte +0x0
00000BA1  8B45E8            mov eax,[ebp-0x18]
00000BA4  8B55EC            mov edx,[ebp-0x14]
00000BA7  8B4DBC            mov ecx,[ebp-0x44]
00000BAA  3945B8            cmp [ebp-0x48],eax
00000BAD  19D1              sbb ecx,edx
00000BAF  73DC              jnc 0xb8d
00000BB1  FF45F4            inc dword [ebp-0xc]
00000BB4  A100420100        mov eax,[0x14200]
00000BB9  8B00              mov eax,[eax]
00000BBB  3945F4            cmp [ebp-0xc],eax
00000BBE  0F8C31FFFFFF      jl near 0xaf5
00000BC4  C745E4A0000000    mov dword [ebp-0x1c],0xa0
00000BCB  EB0E              jmp short 0xbdb
00000BCD  FF75E4            push dword [ebp-0x1c]
00000BD0  E8DFFDFFFF        call 0x9b4
00000BD5  83C404            add esp,byte +0x4
00000BD8  FF45E4            inc dword [ebp-0x1c]
00000BDB  817DE4FF000000    cmp dword [ebp-0x1c],0xff
00000BE2  7EE9              jng 0xbcd
00000BE4  90                nop
00000BE5  90                nop
00000BE6  8D65F8            lea esp,[ebp-0x8]
00000BE9  5B                pop ebx
00000BEA  5E                pop esi
00000BEB  5D                pop ebp
00000BEC  C3                ret
00000BED  55                push ebp
00000BEE  89E5              mov ebp,esp
00000BF0  83EC28            sub esp,byte +0x28
00000BF3  8B450C            mov eax,[ebp+0xc]
00000BF6  8845E4            mov [ebp-0x1c],al
00000BF9  0FBE55E4          movsx edx,byte [ebp-0x1c]
00000BFD  8B4508            mov eax,[ebp+0x8]
00000C00  8B00              mov eax,[eax]
00000C02  83EC08            sub esp,byte +0x8
00000C05  52                push edx
00000C06  50                push eax
00000C07  E80CFAFFFF        call 0x618
00000C0C  83C410            add esp,byte +0x10
00000C0F  807DE40A          cmp byte [ebp-0x1c],0xa
00000C13  754B              jnz 0xc60
00000C15  83EC0C            sub esp,byte +0xc
00000C18  FF7508            push dword [ebp+0x8]
00000C1B  E8BE000000        call 0xcde
00000C20  83C410            add esp,byte +0x10
00000C23  8B4508            mov eax,[ebp+0x8]
00000C26  C6800401000000    mov byte [eax+0x104],0x0
00000C2D  C745F400000000    mov dword [ebp-0xc],0x0
00000C34  EB11              jmp short 0xc47
00000C36  8B5508            mov edx,[ebp+0x8]
00000C39  8B45F4            mov eax,[ebp-0xc]
00000C3C  01D0              add eax,edx
00000C3E  83C004            add eax,byte +0x4
00000C41  C60000            mov byte [eax],0x0
00000C44  FF45F4            inc dword [ebp-0xc]
00000C47  817DF4FF000000    cmp dword [ebp-0xc],0xff
00000C4E  7EE6              jng 0xc36
00000C50  83EC0C            sub esp,byte +0xc
00000C53  FF7508            push dword [ebp+0x8]
00000C56  E8DE000000        call 0xd39
00000C5B  83C410            add esp,byte +0x10
00000C5E  EB2B              jmp short 0xc8b
00000C60  8B4508            mov eax,[ebp+0x8]
00000C63  8A8004010000      mov al,[eax+0x104]
00000C69  0FBEC0            movsx eax,al
00000C6C  8B5508            mov edx,[ebp+0x8]
00000C6F  8A4DE4            mov cl,[ebp-0x1c]
00000C72  884C0204          mov [edx+eax+0x4],cl
00000C76  8B4508            mov eax,[ebp+0x8]
00000C79  8A8004010000      mov al,[eax+0x104]
00000C7F  40                inc eax
00000C80  88C2              mov dl,al
00000C82  8B4508            mov eax,[ebp+0x8]
00000C85  889004010000      mov [eax+0x104],dl
00000C8B  90                nop
00000C8C  C9                leave
00000C8D  C3                ret
00000C8E  55                push ebp
00000C8F  89E5              mov ebp,esp
00000C91  83EC08            sub esp,byte +0x8
00000C94  8B4508            mov eax,[ebp+0x8]
00000C97  8A8004010000      mov al,[eax+0x104]
00000C9D  84C0              test al,al
00000C9F  743A              jz 0xcdb
00000CA1  8B4508            mov eax,[ebp+0x8]
00000CA4  8A8004010000      mov al,[eax+0x104]
00000CAA  48                dec eax
00000CAB  88C2              mov dl,al
00000CAD  8B4508            mov eax,[ebp+0x8]
00000CB0  889004010000      mov [eax+0x104],dl
00000CB6  8B4508            mov eax,[ebp+0x8]
00000CB9  8A8004010000      mov al,[eax+0x104]
00000CBF  0FBEC0            movsx eax,al
00000CC2  8B5508            mov edx,[ebp+0x8]
00000CC5  C644020400        mov byte [edx+eax+0x4],0x0
00000CCA  8B4508            mov eax,[ebp+0x8]
00000CCD  8B00              mov eax,[eax]
00000CCF  83EC0C            sub esp,byte +0xc
00000CD2  50                push eax
00000CD3  E8D3F8FFFF        call 0x5ab
00000CD8  83C410            add esp,byte +0x10
00000CDB  90                nop
00000CDC  C9                leave
00000CDD  C3                ret
00000CDE  55                push ebp
00000CDF  89E5              mov ebp,esp
00000CE1  83EC08            sub esp,byte +0x8
00000CE4  8B4508            mov eax,[ebp+0x8]
00000CE7  8B00              mov eax,[eax]
00000CE9  83EC08            sub esp,byte +0x8
00000CEC  6A0A              push byte +0xa
00000CEE  50                push eax
00000CEF  E824F9FFFF        call 0x618
00000CF4  83C410            add esp,byte +0x10
00000CF7  8B4508            mov eax,[ebp+0x8]
00000CFA  83C004            add eax,byte +0x4
00000CFD  83EC08            sub esp,byte +0x8
00000D00  68D2300000        push dword 0x30d2
00000D05  50                push eax
00000D06  E8840C0000        call 0x198f
00000D0B  83C410            add esp,byte +0x10
00000D0E  84C0              test al,al
00000D10  7411              jz 0xd23
00000D12  8B4508            mov eax,[ebp+0x8]
00000D15  8B00              mov eax,[eax]
00000D17  83EC0C            sub esp,byte +0xc
00000D1A  50                push eax
00000D1B  E808FAFFFF        call 0x728
00000D20  83C410            add esp,byte +0x10
00000D23  8B4508            mov eax,[ebp+0x8]
00000D26  8B00              mov eax,[eax]
00000D28  83EC08            sub esp,byte +0x8
00000D2B  6A0A              push byte +0xa
00000D2D  50                push eax
00000D2E  E8E5F8FFFF        call 0x618
00000D33  83C410            add esp,byte +0x10
00000D36  90                nop
00000D37  C9                leave
00000D38  C3                ret
00000D39  55                push ebp
00000D3A  89E5              mov ebp,esp
00000D3C  83EC08            sub esp,byte +0x8
00000D3F  8B4508            mov eax,[ebp+0x8]
00000D42  8B00              mov eax,[eax]
00000D44  83EC08            sub esp,byte +0x8
00000D47  6A3E              push byte +0x3e
00000D49  50                push eax
00000D4A  E8C9F8FFFF        call 0x618
00000D4F  83C410            add esp,byte +0x10
00000D52  90                nop
00000D53  C9                leave
00000D54  C3                ret
00000D55  55                push ebp
00000D56  89E5              mov ebp,esp
00000D58  83EC18            sub esp,byte +0x18
00000D5B  83EC0C            sub esp,byte +0xc
00000D5E  6A60              push byte +0x60
00000D60  E8CE050000        call 0x1333
00000D65  83C410            add esp,byte +0x10
00000D68  8845F7            mov [ebp-0x9],al
00000D6B  0FBE45F7          movsx eax,byte [ebp-0x9]
00000D6F  83EC0C            sub esp,byte +0xc
00000D72  50                push eax
00000D73  E821000000        call 0xd99
00000D78  83C410            add esp,byte +0x10
00000D7B  90                nop
00000D7C  C9                leave
00000D7D  C3                ret
00000D7E  55                push ebp
00000D7F  89E5              mov ebp,esp
00000D81  83EC08            sub esp,byte +0x8
00000D84  83EC08            sub esp,byte +0x8
00000D87  68551D0000        push dword 0x1d55
00000D8C  6A21              push byte +0x21
00000D8E  E85A0A0000        call 0x17ed
00000D93  83C410            add esp,byte +0x10
00000D96  90                nop
00000D97  C9                leave
00000D98  C3                ret
00000D99  55                push ebp
00000D9A  89E5              mov ebp,esp
00000D9C  83EC18            sub esp,byte +0x18
00000D9F  8B4508            mov eax,[ebp+0x8]
00000DA2  8845F4            mov [ebp-0xc],al
00000DA5  0FBE45F4          movsx eax,byte [ebp-0xc]
00000DA9  83F839            cmp eax,byte +0x39
00000DAC  0F87A1040000      ja near 0x1253
00000DB2  8B0485E0300000    mov eax,[eax*4+0x30e0]
00000DB9  FFE0              jmp eax
00000DBB  83EC08            sub esp,byte +0x8
00000DBE  68D8300000        push dword 0x30d8
00000DC3  68E0410100        push dword 0x141e0
00000DC8  E81EF9FFFF        call 0x6eb
00000DCD  83C410            add esp,byte +0x10
00000DD0  E982040000        jmp 0x1257
00000DD5  83EC08            sub esp,byte +0x8
00000DD8  6A31              push byte +0x31
00000DDA  68C0400000        push dword 0x40c0
00000DDF  E809FEFFFF        call 0xbed
00000DE4  83C410            add esp,byte +0x10
00000DE7  E96B040000        jmp 0x1257
00000DEC  83EC08            sub esp,byte +0x8
00000DEF  6A32              push byte +0x32
00000DF1  68C0400000        push dword 0x40c0
00000DF6  E8F2FDFFFF        call 0xbed
00000DFB  83C410            add esp,byte +0x10
00000DFE  E954040000        jmp 0x1257
00000E03  83EC08            sub esp,byte +0x8
00000E06  6A33              push byte +0x33
00000E08  68C0400000        push dword 0x40c0
00000E0D  E8DBFDFFFF        call 0xbed
00000E12  83C410            add esp,byte +0x10
00000E15  E93D040000        jmp 0x1257
00000E1A  83EC08            sub esp,byte +0x8
00000E1D  6A34              push byte +0x34
00000E1F  68C0400000        push dword 0x40c0
00000E24  E8C4FDFFFF        call 0xbed
00000E29  83C410            add esp,byte +0x10
00000E2C  E926040000        jmp 0x1257
00000E31  83EC08            sub esp,byte +0x8
00000E34  6A35              push byte +0x35
00000E36  68C0400000        push dword 0x40c0
00000E3B  E8ADFDFFFF        call 0xbed
00000E40  83C410            add esp,byte +0x10
00000E43  E90F040000        jmp 0x1257
00000E48  83EC08            sub esp,byte +0x8
00000E4B  6A36              push byte +0x36
00000E4D  68C0400000        push dword 0x40c0
00000E52  E896FDFFFF        call 0xbed
00000E57  83C410            add esp,byte +0x10
00000E5A  E9F8030000        jmp 0x1257
00000E5F  83EC08            sub esp,byte +0x8
00000E62  6A37              push byte +0x37
00000E64  68C0400000        push dword 0x40c0
00000E69  E87FFDFFFF        call 0xbed
00000E6E  83C410            add esp,byte +0x10
00000E71  E9E1030000        jmp 0x1257
00000E76  83EC08            sub esp,byte +0x8
00000E79  6A38              push byte +0x38
00000E7B  68C0400000        push dword 0x40c0
00000E80  E868FDFFFF        call 0xbed
00000E85  83C410            add esp,byte +0x10
00000E88  E9CA030000        jmp 0x1257
00000E8D  83EC08            sub esp,byte +0x8
00000E90  6A39              push byte +0x39
00000E92  68C0400000        push dword 0x40c0
00000E97  E851FDFFFF        call 0xbed
00000E9C  83C410            add esp,byte +0x10
00000E9F  E9B3030000        jmp 0x1257
00000EA4  83EC08            sub esp,byte +0x8
00000EA7  6A30              push byte +0x30
00000EA9  68C0400000        push dword 0x40c0
00000EAE  E83AFDFFFF        call 0xbed
00000EB3  83C410            add esp,byte +0x10
00000EB6  E99C030000        jmp 0x1257
00000EBB  83EC08            sub esp,byte +0x8
00000EBE  6A2D              push byte +0x2d
00000EC0  68C0400000        push dword 0x40c0
00000EC5  E823FDFFFF        call 0xbed
00000ECA  83C410            add esp,byte +0x10
00000ECD  E985030000        jmp 0x1257
00000ED2  83EC08            sub esp,byte +0x8
00000ED5  6A2B              push byte +0x2b
00000ED7  68C0400000        push dword 0x40c0
00000EDC  E80CFDFFFF        call 0xbed
00000EE1  83C410            add esp,byte +0x10
00000EE4  E96E030000        jmp 0x1257
00000EE9  83EC0C            sub esp,byte +0xc
00000EEC  68C0400000        push dword 0x40c0
00000EF1  E898FDFFFF        call 0xc8e
00000EF6  83C410            add esp,byte +0x10
00000EF9  E959030000        jmp 0x1257
00000EFE  83EC08            sub esp,byte +0x8
00000F01  6A62              push byte +0x62
00000F03  68C0400000        push dword 0x40c0
00000F08  E8E0FCFFFF        call 0xbed
00000F0D  83C410            add esp,byte +0x10
00000F10  E942030000        jmp 0x1257
00000F15  83EC08            sub esp,byte +0x8
00000F18  6A51              push byte +0x51
00000F1A  68C0400000        push dword 0x40c0
00000F1F  E8C9FCFFFF        call 0xbed
00000F24  83C410            add esp,byte +0x10
00000F27  E92B030000        jmp 0x1257
00000F2C  83EC08            sub esp,byte +0x8
00000F2F  6A57              push byte +0x57
00000F31  68C0400000        push dword 0x40c0
00000F36  E8B2FCFFFF        call 0xbed
00000F3B  83C410            add esp,byte +0x10
00000F3E  E914030000        jmp 0x1257
00000F43  83EC08            sub esp,byte +0x8
00000F46  6A45              push byte +0x45
00000F48  68C0400000        push dword 0x40c0
00000F4D  E89BFCFFFF        call 0xbed
00000F52  83C410            add esp,byte +0x10
00000F55  E9FD020000        jmp 0x1257
00000F5A  83EC08            sub esp,byte +0x8
00000F5D  6A52              push byte +0x52
00000F5F  68C0400000        push dword 0x40c0
00000F64  E884FCFFFF        call 0xbed
00000F69  83C410            add esp,byte +0x10
00000F6C  E9E6020000        jmp 0x1257
00000F71  83EC08            sub esp,byte +0x8
00000F74  6A54              push byte +0x54
00000F76  68C0400000        push dword 0x40c0
00000F7B  E86DFCFFFF        call 0xbed
00000F80  83C410            add esp,byte +0x10
00000F83  E9CF020000        jmp 0x1257
00000F88  83EC08            sub esp,byte +0x8
00000F8B  6A59              push byte +0x59
00000F8D  68C0400000        push dword 0x40c0
00000F92  E856FCFFFF        call 0xbed
00000F97  83C410            add esp,byte +0x10
00000F9A  E9B8020000        jmp 0x1257
00000F9F  83EC08            sub esp,byte +0x8
00000FA2  6A55              push byte +0x55
00000FA4  68C0400000        push dword 0x40c0
00000FA9  E83FFCFFFF        call 0xbed
00000FAE  83C410            add esp,byte +0x10
00000FB1  E9A1020000        jmp 0x1257
00000FB6  83EC08            sub esp,byte +0x8
00000FB9  6A49              push byte +0x49
00000FBB  68C0400000        push dword 0x40c0
00000FC0  E828FCFFFF        call 0xbed
00000FC5  83C410            add esp,byte +0x10
00000FC8  E98A020000        jmp 0x1257
00000FCD  83EC08            sub esp,byte +0x8
00000FD0  6A4F              push byte +0x4f
00000FD2  68C0400000        push dword 0x40c0
00000FD7  E811FCFFFF        call 0xbed
00000FDC  83C410            add esp,byte +0x10
00000FDF  E973020000        jmp 0x1257
00000FE4  83EC08            sub esp,byte +0x8
00000FE7  6A50              push byte +0x50
00000FE9  68C0400000        push dword 0x40c0
00000FEE  E8FAFBFFFF        call 0xbed
00000FF3  83C410            add esp,byte +0x10
00000FF6  E95C020000        jmp 0x1257
00000FFB  83EC08            sub esp,byte +0x8
00000FFE  6A5B              push byte +0x5b
00001000  68C0400000        push dword 0x40c0
00001005  E8E3FBFFFF        call 0xbed
0000100A  83C410            add esp,byte +0x10
0000100D  E945020000        jmp 0x1257
00001012  83EC08            sub esp,byte +0x8
00001015  6A5D              push byte +0x5d
00001017  68C0400000        push dword 0x40c0
0000101C  E8CCFBFFFF        call 0xbed
00001021  83C410            add esp,byte +0x10
00001024  E92E020000        jmp 0x1257
00001029  83EC08            sub esp,byte +0x8
0000102C  6A0A              push byte +0xa
0000102E  68C0400000        push dword 0x40c0
00001033  E8B5FBFFFF        call 0xbed
00001038  83C410            add esp,byte +0x10
0000103B  E917020000        jmp 0x1257
00001040  83EC08            sub esp,byte +0x8
00001043  6A41              push byte +0x41
00001045  68C0400000        push dword 0x40c0
0000104A  E89EFBFFFF        call 0xbed
0000104F  83C410            add esp,byte +0x10
00001052  E900020000        jmp 0x1257
00001057  83EC08            sub esp,byte +0x8
0000105A  6A53              push byte +0x53
0000105C  68C0400000        push dword 0x40c0
00001061  E887FBFFFF        call 0xbed
00001066  83C410            add esp,byte +0x10
00001069  E9E9010000        jmp 0x1257
0000106E  83EC08            sub esp,byte +0x8
00001071  6A44              push byte +0x44
00001073  68C0400000        push dword 0x40c0
00001078  E870FBFFFF        call 0xbed
0000107D  83C410            add esp,byte +0x10
00001080  E9D2010000        jmp 0x1257
00001085  83EC08            sub esp,byte +0x8
00001088  6A46              push byte +0x46
0000108A  68C0400000        push dword 0x40c0
0000108F  E859FBFFFF        call 0xbed
00001094  83C410            add esp,byte +0x10
00001097  E9BB010000        jmp 0x1257
0000109C  83EC08            sub esp,byte +0x8
0000109F  6A47              push byte +0x47
000010A1  68C0400000        push dword 0x40c0
000010A6  E842FBFFFF        call 0xbed
000010AB  83C410            add esp,byte +0x10
000010AE  E9A4010000        jmp 0x1257
000010B3  83EC08            sub esp,byte +0x8
000010B6  6A48              push byte +0x48
000010B8  68C0400000        push dword 0x40c0
000010BD  E82BFBFFFF        call 0xbed
000010C2  83C410            add esp,byte +0x10
000010C5  E98D010000        jmp 0x1257
000010CA  83EC08            sub esp,byte +0x8
000010CD  6A4A              push byte +0x4a
000010CF  68C0400000        push dword 0x40c0
000010D4  E814FBFFFF        call 0xbed
000010D9  83C410            add esp,byte +0x10
000010DC  E976010000        jmp 0x1257
000010E1  83EC08            sub esp,byte +0x8
000010E4  6A4B              push byte +0x4b
000010E6  68C0400000        push dword 0x40c0
000010EB  E8FDFAFFFF        call 0xbed
000010F0  83C410            add esp,byte +0x10
000010F3  E95F010000        jmp 0x1257
000010F8  83EC08            sub esp,byte +0x8
000010FB  6A4C              push byte +0x4c
000010FD  68C0400000        push dword 0x40c0
00001102  E8E6FAFFFF        call 0xbed
00001107  83C410            add esp,byte +0x10
0000110A  E948010000        jmp 0x1257
0000110F  83EC08            sub esp,byte +0x8
00001112  6A3B              push byte +0x3b
00001114  68C0400000        push dword 0x40c0
00001119  E8CFFAFFFF        call 0xbed
0000111E  83C410            add esp,byte +0x10
00001121  E931010000        jmp 0x1257
00001126  83EC08            sub esp,byte +0x8
00001129  6A27              push byte +0x27
0000112B  68C0400000        push dword 0x40c0
00001130  E8B8FAFFFF        call 0xbed
00001135  83C410            add esp,byte +0x10
00001138  E91A010000        jmp 0x1257
0000113D  83EC08            sub esp,byte +0x8
00001140  6A60              push byte +0x60
00001142  68C0400000        push dword 0x40c0
00001147  E8A1FAFFFF        call 0xbed
0000114C  83C410            add esp,byte +0x10
0000114F  E903010000        jmp 0x1257
00001154  83EC08            sub esp,byte +0x8
00001157  6A5C              push byte +0x5c
00001159  68C0400000        push dword 0x40c0
0000115E  E88AFAFFFF        call 0xbed
00001163  83C410            add esp,byte +0x10
00001166  E9EC000000        jmp 0x1257
0000116B  83EC08            sub esp,byte +0x8
0000116E  6A5A              push byte +0x5a
00001170  68C0400000        push dword 0x40c0
00001175  E873FAFFFF        call 0xbed
0000117A  83C410            add esp,byte +0x10
0000117D  E9D5000000        jmp 0x1257
00001182  83EC08            sub esp,byte +0x8
00001185  6A58              push byte +0x58
00001187  68C0400000        push dword 0x40c0
0000118C  E85CFAFFFF        call 0xbed
00001191  83C410            add esp,byte +0x10
00001194  E9BE000000        jmp 0x1257
00001199  83EC08            sub esp,byte +0x8
0000119C  6A43              push byte +0x43
0000119E  68C0400000        push dword 0x40c0
000011A3  E845FAFFFF        call 0xbed
000011A8  83C410            add esp,byte +0x10
000011AB  E9A7000000        jmp 0x1257
000011B0  83EC08            sub esp,byte +0x8
000011B3  6A56              push byte +0x56
000011B5  68C0400000        push dword 0x40c0
000011BA  E82EFAFFFF        call 0xbed
000011BF  83C410            add esp,byte +0x10
000011C2  E990000000        jmp 0x1257
000011C7  83EC08            sub esp,byte +0x8
000011CA  6A42              push byte +0x42
000011CC  68C0400000        push dword 0x40c0
000011D1  E817FAFFFF        call 0xbed
000011D6  83C410            add esp,byte +0x10
000011D9  EB7C              jmp short 0x1257
000011DB  83EC08            sub esp,byte +0x8
000011DE  6A4E              push byte +0x4e
000011E0  68C0400000        push dword 0x40c0
000011E5  E803FAFFFF        call 0xbed
000011EA  83C410            add esp,byte +0x10
000011ED  EB68              jmp short 0x1257
000011EF  83EC08            sub esp,byte +0x8
000011F2  6A4D              push byte +0x4d
000011F4  68C0400000        push dword 0x40c0
000011F9  E8EFF9FFFF        call 0xbed
000011FE  83C410            add esp,byte +0x10
00001201  EB54              jmp short 0x1257
00001203  83EC08            sub esp,byte +0x8
00001206  6A2C              push byte +0x2c
00001208  68C0400000        push dword 0x40c0
0000120D  E8DBF9FFFF        call 0xbed
00001212  83C410            add esp,byte +0x10
00001215  EB40              jmp short 0x1257
00001217  83EC08            sub esp,byte +0x8
0000121A  6A2E              push byte +0x2e
0000121C  68C0400000        push dword 0x40c0
00001221  E8C7F9FFFF        call 0xbed
00001226  83C410            add esp,byte +0x10
00001229  EB2C              jmp short 0x1257
0000122B  83EC08            sub esp,byte +0x8
0000122E  6A2F              push byte +0x2f
00001230  68C0400000        push dword 0x40c0
00001235  E8B3F9FFFF        call 0xbed
0000123A  83C410            add esp,byte +0x10
0000123D  EB18              jmp short 0x1257
0000123F  83EC08            sub esp,byte +0x8
00001242  6A63              push byte +0x63
00001244  68C0400000        push dword 0x40c0
00001249  E89FF9FFFF        call 0xbed
0000124E  83C410            add esp,byte +0x10
00001251  EB04              jmp short 0x1257
00001253  90                nop
00001254  EB01              jmp short 0x1257
00001256  90                nop
00001257  90                nop
00001258  C9                leave
00001259  C3                ret
0000125A  55                push ebp
0000125B  89E5              mov ebp,esp
0000125D  81EC08010000      sub esp,0x108
00001263  A180400000        mov eax,[0x4080]
00001268  40                inc eax
00001269  A380400000        mov [0x4080],eax
0000126E  83EC08            sub esp,byte +0x8
00001271  68C8310000        push dword 0x31c8
00001276  68E0410100        push dword 0x141e0
0000127B  E86BF4FFFF        call 0x6eb
00001280  83C410            add esp,byte +0x10
00001283  A180400000        mov eax,[0x4080]
00001288  83EC08            sub esp,byte +0x8
0000128B  8D95F8FEFFFF      lea edx,[ebp-0x108]
00001291  52                push edx
00001292  50                push eax
00001293  E8E8070000        call 0x1a80
00001298  83C410            add esp,byte +0x10
0000129B  83EC08            sub esp,byte +0x8
0000129E  8D85F8FEFFFF      lea eax,[ebp-0x108]
000012A4  50                push eax
000012A5  68E0410100        push dword 0x141e0
000012AA  E83CF4FFFF        call 0x6eb
000012AF  83C410            add esp,byte +0x10
000012B2  83EC08            sub esp,byte +0x8
000012B5  68CF310000        push dword 0x31cf
000012BA  68E0410100        push dword 0x141e0
000012BF  E827F4FFFF        call 0x6eb
000012C4  83C410            add esp,byte +0x10
000012C7  90                nop
000012C8  C9                leave
000012C9  C3                ret
000012CA  55                push ebp
000012CB  89E5              mov ebp,esp
000012CD  83EC18            sub esp,byte +0x18
000012D0  83EC08            sub esp,byte +0x8
000012D3  685A220000        push dword 0x225a
000012D8  6A20              push byte +0x20
000012DA  E80E050000        call 0x17ed
000012DF  83C410            add esp,byte +0x10
000012E2  B8DC341200        mov eax,0x1234dc
000012E7  99                cdq
000012E8  F77D08            idiv dword [ebp+0x8]
000012EB  8945F4            mov [ebp-0xc],eax
000012EE  8B45F4            mov eax,[ebp-0xc]
000012F1  8845F3            mov [ebp-0xd],al
000012F4  8B45F4            mov eax,[ebp-0xc]
000012F7  C1F808            sar eax,byte 0x8
000012FA  8845F2            mov [ebp-0xe],al
000012FD  83EC08            sub esp,byte +0x8
00001300  6A36              push byte +0x36
00001302  6A43              push byte +0x43
00001304  E845000000        call 0x134e
00001309  83C410            add esp,byte +0x10
0000130C  0FBE45F3          movsx eax,byte [ebp-0xd]
00001310  83EC08            sub esp,byte +0x8
00001313  50                push eax
00001314  6A40              push byte +0x40
00001316  E833000000        call 0x134e
0000131B  83C410            add esp,byte +0x10
0000131E  0FBE45F2          movsx eax,byte [ebp-0xe]
00001322  83EC08            sub esp,byte +0x8
00001325  50                push eax
00001326  6A40              push byte +0x40
00001328  E821000000        call 0x134e
0000132D  83C410            add esp,byte +0x10
00001330  90                nop
00001331  C9                leave
00001332  C3                ret
00001333  55                push ebp
00001334  89E5              mov ebp,esp
00001336  83EC14            sub esp,byte +0x14
00001339  8B4508            mov eax,[ebp+0x8]
0000133C  668945EC          mov [ebp-0x14],ax
00001340  8B45EC            mov eax,[ebp-0x14]
00001343  89C2              mov edx,eax
00001345  EC                in al,dx
00001346  8845FF            mov [ebp-0x1],al
00001349  8A45FF            mov al,[ebp-0x1]
0000134C  C9                leave
0000134D  C3                ret
0000134E  55                push ebp
0000134F  89E5              mov ebp,esp
00001351  83EC08            sub esp,byte +0x8
00001354  8B4508            mov eax,[ebp+0x8]
00001357  8B550C            mov edx,[ebp+0xc]
0000135A  668945FC          mov [ebp-0x4],ax
0000135E  88D0              mov al,dl
00001360  8845F8            mov [ebp-0x8],al
00001363  8A45F8            mov al,[ebp-0x8]
00001366  8B55FC            mov edx,[ebp-0x4]
00001369  EE                out dx,al
0000136A  90                nop
0000136B  C9                leave
0000136C  C3                ret
0000136D  55                push ebp
0000136E  89E5              mov ebp,esp
00001370  83EC14            sub esp,byte +0x14
00001373  8B4508            mov eax,[ebp+0x8]
00001376  668945EC          mov [ebp-0x14],ax
0000137A  8B45EC            mov eax,[ebp-0x14]
0000137D  89C2              mov edx,eax
0000137F  66ED              in ax,dx
00001381  668945FE          mov [ebp-0x2],ax
00001385  668B45FE          mov ax,[ebp-0x2]
00001389  C9                leave
0000138A  C3                ret
0000138B  55                push ebp
0000138C  89E5              mov ebp,esp
0000138E  83EC08            sub esp,byte +0x8
00001391  8B5508            mov edx,[ebp+0x8]
00001394  8B450C            mov eax,[ebp+0xc]
00001397  668955FC          mov [ebp-0x4],dx
0000139B  668945F8          mov [ebp-0x8],ax
0000139F  8B45F8            mov eax,[ebp-0x8]
000013A2  8B55FC            mov edx,[ebp-0x4]
000013A5  66EF              out dx,ax
000013A7  90                nop
000013A8  C9                leave
000013A9  C3                ret
000013AA  55                push ebp
000013AB  89E5              mov ebp,esp
000013AD  83EC08            sub esp,byte +0x8
000013B0  B8EA110000        mov eax,0x11ea
000013B5  83EC08            sub esp,byte +0x8
000013B8  50                push eax
000013B9  6A00              push byte +0x0
000013BB  E83F050000        call 0x18ff
000013C0  83C410            add esp,byte +0x10
000013C3  B8F1110000        mov eax,0x11f1
000013C8  83EC08            sub esp,byte +0x8
000013CB  50                push eax
000013CC  6A01              push byte +0x1
000013CE  E82C050000        call 0x18ff
000013D3  83C410            add esp,byte +0x10
000013D6  B8F8110000        mov eax,0x11f8
000013DB  83EC08            sub esp,byte +0x8
000013DE  50                push eax
000013DF  6A02              push byte +0x2
000013E1  E819050000        call 0x18ff
000013E6  83C410            add esp,byte +0x10
000013E9  B8FF110000        mov eax,0x11ff
000013EE  83EC08            sub esp,byte +0x8
000013F1  50                push eax
000013F2  6A03              push byte +0x3
000013F4  E806050000        call 0x18ff
000013F9  83C410            add esp,byte +0x10
000013FC  B806120000        mov eax,0x1206
00001401  83EC08            sub esp,byte +0x8
00001404  50                push eax
00001405  6A04              push byte +0x4
00001407  E8F3040000        call 0x18ff
0000140C  83C410            add esp,byte +0x10
0000140F  B814120000        mov eax,0x1214
00001414  83EC08            sub esp,byte +0x8
00001417  50                push eax
00001418  6A06              push byte +0x6
0000141A  E8E0040000        call 0x18ff
0000141F  83C410            add esp,byte +0x10
00001422  B81B120000        mov eax,0x121b
00001427  83EC08            sub esp,byte +0x8
0000142A  50                push eax
0000142B  6A07              push byte +0x7
0000142D  E8CD040000        call 0x18ff
00001432  83C410            add esp,byte +0x10
00001435  B825120000        mov eax,0x1225
0000143A  83EC08            sub esp,byte +0x8
0000143D  50                push eax
0000143E  6A08              push byte +0x8
00001440  E8BA040000        call 0x18ff
00001445  83C410            add esp,byte +0x10
00001448  B82D120000        mov eax,0x122d
0000144D  83EC08            sub esp,byte +0x8
00001450  50                push eax
00001451  6A09              push byte +0x9
00001453  E8A7040000        call 0x18ff
00001458  83C410            add esp,byte +0x10
0000145B  B837120000        mov eax,0x1237
00001460  83EC08            sub esp,byte +0x8
00001463  50                push eax
00001464  6A0A              push byte +0xa
00001466  E894040000        call 0x18ff
0000146B  83C410            add esp,byte +0x10
0000146E  B83F120000        mov eax,0x123f
00001473  83EC08            sub esp,byte +0x8
00001476  50                push eax
00001477  6A0B              push byte +0xb
00001479  E881040000        call 0x18ff
0000147E  83C410            add esp,byte +0x10
00001481  B847120000        mov eax,0x1247
00001486  83EC08            sub esp,byte +0x8
00001489  50                push eax
0000148A  6A0C              push byte +0xc
0000148C  E86E040000        call 0x18ff
00001491  83C410            add esp,byte +0x10
00001494  B84F120000        mov eax,0x124f
00001499  83EC08            sub esp,byte +0x8
0000149C  50                push eax
0000149D  6A0D              push byte +0xd
0000149F  E85B040000        call 0x18ff
000014A4  83C410            add esp,byte +0x10
000014A7  B857120000        mov eax,0x1257
000014AC  83EC08            sub esp,byte +0x8
000014AF  50                push eax
000014B0  6A0E              push byte +0xe
000014B2  E848040000        call 0x18ff
000014B7  83C410            add esp,byte +0x10
000014BA  B85F120000        mov eax,0x125f
000014BF  83EC08            sub esp,byte +0x8
000014C2  50                push eax
000014C3  6A0F              push byte +0xf
000014C5  E835040000        call 0x18ff
000014CA  83C410            add esp,byte +0x10
000014CD  B869120000        mov eax,0x1269
000014D2  83EC08            sub esp,byte +0x8
000014D5  50                push eax
000014D6  6A10              push byte +0x10
000014D8  E822040000        call 0x18ff
000014DD  83C410            add esp,byte +0x10
000014E0  B873120000        mov eax,0x1273
000014E5  83EC08            sub esp,byte +0x8
000014E8  50                push eax
000014E9  6A11              push byte +0x11
000014EB  E80F040000        call 0x18ff
000014F0  83C410            add esp,byte +0x10
000014F3  B87D120000        mov eax,0x127d
000014F8  83EC08            sub esp,byte +0x8
000014FB  50                push eax
000014FC  6A12              push byte +0x12
000014FE  E8FC030000        call 0x18ff
00001503  83C410            add esp,byte +0x10
00001506  B887120000        mov eax,0x1287
0000150B  83EC08            sub esp,byte +0x8
0000150E  50                push eax
0000150F  6A13              push byte +0x13
00001511  E8E9030000        call 0x18ff
00001516  83C410            add esp,byte +0x10
00001519  B891120000        mov eax,0x1291
0000151E  83EC08            sub esp,byte +0x8
00001521  50                push eax
00001522  6A14              push byte +0x14
00001524  E8D6030000        call 0x18ff
00001529  83C410            add esp,byte +0x10
0000152C  B89B120000        mov eax,0x129b
00001531  83EC08            sub esp,byte +0x8
00001534  50                push eax
00001535  6A15              push byte +0x15
00001537  E8C3030000        call 0x18ff
0000153C  83C410            add esp,byte +0x10
0000153F  B8A5120000        mov eax,0x12a5
00001544  83EC08            sub esp,byte +0x8
00001547  50                push eax
00001548  6A16              push byte +0x16
0000154A  E8B0030000        call 0x18ff
0000154F  83C410            add esp,byte +0x10
00001552  B8AF120000        mov eax,0x12af
00001557  83EC08            sub esp,byte +0x8
0000155A  50                push eax
0000155B  6A17              push byte +0x17
0000155D  E89D030000        call 0x18ff
00001562  83C410            add esp,byte +0x10
00001565  B8B9120000        mov eax,0x12b9
0000156A  83EC08            sub esp,byte +0x8
0000156D  50                push eax
0000156E  6A18              push byte +0x18
00001570  E88A030000        call 0x18ff
00001575  83C410            add esp,byte +0x10
00001578  B8C3120000        mov eax,0x12c3
0000157D  83EC08            sub esp,byte +0x8
00001580  50                push eax
00001581  6A19              push byte +0x19
00001583  E877030000        call 0x18ff
00001588  83C410            add esp,byte +0x10
0000158B  B8CD120000        mov eax,0x12cd
00001590  83EC08            sub esp,byte +0x8
00001593  50                push eax
00001594  6A1A              push byte +0x1a
00001596  E864030000        call 0x18ff
0000159B  83C410            add esp,byte +0x10
0000159E  B8D7120000        mov eax,0x12d7
000015A3  83EC08            sub esp,byte +0x8
000015A6  50                push eax
000015A7  6A1B              push byte +0x1b
000015A9  E851030000        call 0x18ff
000015AE  83C410            add esp,byte +0x10
000015B1  B8E1120000        mov eax,0x12e1
000015B6  83EC08            sub esp,byte +0x8
000015B9  50                push eax
000015BA  6A1C              push byte +0x1c
000015BC  E83E030000        call 0x18ff
000015C1  83C410            add esp,byte +0x10
000015C4  B8EB120000        mov eax,0x12eb
000015C9  83EC08            sub esp,byte +0x8
000015CC  50                push eax
000015CD  6A1D              push byte +0x1d
000015CF  E82B030000        call 0x18ff
000015D4  83C410            add esp,byte +0x10
000015D7  B8F5120000        mov eax,0x12f5
000015DC  83EC08            sub esp,byte +0x8
000015DF  50                push eax
000015E0  6A1E              push byte +0x1e
000015E2  E818030000        call 0x18ff
000015E7  83C410            add esp,byte +0x10
000015EA  B8FF120000        mov eax,0x12ff
000015EF  83EC08            sub esp,byte +0x8
000015F2  50                push eax
000015F3  6A1F              push byte +0x1f
000015F5  E805030000        call 0x18ff
000015FA  83C410            add esp,byte +0x10
000015FD  83EC08            sub esp,byte +0x8
00001600  6A11              push byte +0x11
00001602  6A20              push byte +0x20
00001604  E845FDFFFF        call 0x134e
00001609  83C410            add esp,byte +0x10
0000160C  83EC08            sub esp,byte +0x8
0000160F  6A11              push byte +0x11
00001611  68A0000000        push dword 0xa0
00001616  E833FDFFFF        call 0x134e
0000161B  83C410            add esp,byte +0x10
0000161E  83EC08            sub esp,byte +0x8
00001621  6A20              push byte +0x20
00001623  6A21              push byte +0x21
00001625  E824FDFFFF        call 0x134e
0000162A  83C410            add esp,byte +0x10
0000162D  83EC08            sub esp,byte +0x8
00001630  6A28              push byte +0x28
00001632  68A1000000        push dword 0xa1
00001637  E812FDFFFF        call 0x134e
0000163C  83C410            add esp,byte +0x10
0000163F  83EC08            sub esp,byte +0x8
00001642  6A04              push byte +0x4
00001644  6A21              push byte +0x21
00001646  E803FDFFFF        call 0x134e
0000164B  83C410            add esp,byte +0x10
0000164E  83EC08            sub esp,byte +0x8
00001651  6A02              push byte +0x2
00001653  68A1000000        push dword 0xa1
00001658  E8F1FCFFFF        call 0x134e
0000165D  83C410            add esp,byte +0x10
00001660  83EC08            sub esp,byte +0x8
00001663  6A01              push byte +0x1
00001665  6A21              push byte +0x21
00001667  E8E2FCFFFF        call 0x134e
0000166C  83C410            add esp,byte +0x10
0000166F  83EC08            sub esp,byte +0x8
00001672  6A01              push byte +0x1
00001674  68A1000000        push dword 0xa1
00001679  E8D0FCFFFF        call 0x134e
0000167E  83C410            add esp,byte +0x10
00001681  83EC08            sub esp,byte +0x8
00001684  6A00              push byte +0x0
00001686  6A21              push byte +0x21
00001688  E8C1FCFFFF        call 0x134e
0000168D  83C410            add esp,byte +0x10
00001690  83EC08            sub esp,byte +0x8
00001693  6A00              push byte +0x0
00001695  68A1000000        push dword 0xa1
0000169A  E8AFFCFFFF        call 0x134e
0000169F  83C410            add esp,byte +0x10
000016A2  B809130000        mov eax,0x1309
000016A7  83EC08            sub esp,byte +0x8
000016AA  50                push eax
000016AB  6A20              push byte +0x20
000016AD  E84D020000        call 0x18ff
000016B2  83C410            add esp,byte +0x10
000016B5  B813130000        mov eax,0x1313
000016BA  83EC08            sub esp,byte +0x8
000016BD  50                push eax
000016BE  6A21              push byte +0x21
000016C0  E83A020000        call 0x18ff
000016C5  83C410            add esp,byte +0x10
000016C8  B81D130000        mov eax,0x131d
000016CD  83EC08            sub esp,byte +0x8
000016D0  50                push eax
000016D1  6A22              push byte +0x22
000016D3  E827020000        call 0x18ff
000016D8  83C410            add esp,byte +0x10
000016DB  B827130000        mov eax,0x1327
000016E0  83EC08            sub esp,byte +0x8
000016E3  50                push eax
000016E4  6A23              push byte +0x23
000016E6  E814020000        call 0x18ff
000016EB  83C410            add esp,byte +0x10
000016EE  B831130000        mov eax,0x1331
000016F3  83EC08            sub esp,byte +0x8
000016F6  50                push eax
000016F7  6A24              push byte +0x24
000016F9  E801020000        call 0x18ff
000016FE  83C410            add esp,byte +0x10
00001701  B83B130000        mov eax,0x133b
00001706  83EC08            sub esp,byte +0x8
00001709  50                push eax
0000170A  6A25              push byte +0x25
0000170C  E8EE010000        call 0x18ff
00001711  83C410            add esp,byte +0x10
00001714  B845130000        mov eax,0x1345
00001719  83EC08            sub esp,byte +0x8
0000171C  50                push eax
0000171D  6A26              push byte +0x26
0000171F  E8DB010000        call 0x18ff
00001724  83C410            add esp,byte +0x10
00001727  B84F130000        mov eax,0x134f
0000172C  83EC08            sub esp,byte +0x8
0000172F  50                push eax
00001730  6A27              push byte +0x27
00001732  E8C8010000        call 0x18ff
00001737  83C410            add esp,byte +0x10
0000173A  B859130000        mov eax,0x1359
0000173F  83EC08            sub esp,byte +0x8
00001742  50                push eax
00001743  6A28              push byte +0x28
00001745  E8B5010000        call 0x18ff
0000174A  83C410            add esp,byte +0x10
0000174D  B863130000        mov eax,0x1363
00001752  83EC08            sub esp,byte +0x8
00001755  50                push eax
00001756  6A29              push byte +0x29
00001758  E8A2010000        call 0x18ff
0000175D  83C410            add esp,byte +0x10
00001760  B86D130000        mov eax,0x136d
00001765  83EC08            sub esp,byte +0x8
00001768  50                push eax
00001769  6A2A              push byte +0x2a
0000176B  E88F010000        call 0x18ff
00001770  83C410            add esp,byte +0x10
00001773  B877130000        mov eax,0x1377
00001778  83EC08            sub esp,byte +0x8
0000177B  50                push eax
0000177C  6A2B              push byte +0x2b
0000177E  E87C010000        call 0x18ff
00001783  83C410            add esp,byte +0x10
00001786  B881130000        mov eax,0x1381
0000178B  83EC08            sub esp,byte +0x8
0000178E  50                push eax
0000178F  6A2C              push byte +0x2c
00001791  E869010000        call 0x18ff
00001796  83C410            add esp,byte +0x10
00001799  B88B130000        mov eax,0x138b
0000179E  83EC08            sub esp,byte +0x8
000017A1  50                push eax
000017A2  6A2D              push byte +0x2d
000017A4  E856010000        call 0x18ff
000017A9  83C410            add esp,byte +0x10
000017AC  B895130000        mov eax,0x1395
000017B1  83EC08            sub esp,byte +0x8
000017B4  50                push eax
000017B5  6A2E              push byte +0x2e
000017B7  E843010000        call 0x18ff
000017BC  83C410            add esp,byte +0x10
000017BF  B89F130000        mov eax,0x139f
000017C4  83EC08            sub esp,byte +0x8
000017C7  50                push eax
000017C8  6A2F              push byte +0x2f
000017CA  E830010000        call 0x18ff
000017CF  83C410            add esp,byte +0x10
000017D2  B8A9130000        mov eax,0x13a9
000017D7  83EC08            sub esp,byte +0x8
000017DA  50                push eax
000017DB  6A30              push byte +0x30
000017DD  E81D010000        call 0x18ff
000017E2  83C410            add esp,byte +0x10
000017E5  E873010000        call 0x195d
000017EA  90                nop
000017EB  C9                leave
000017EC  C3                ret
000017ED  55                push ebp
000017EE  89E5              mov ebp,esp
000017F0  83EC04            sub esp,byte +0x4
000017F3  8B4508            mov eax,[ebp+0x8]
000017F6  8845FC            mov [ebp-0x4],al
000017F9  0FBE45FC          movsx eax,byte [ebp-0x4]
000017FD  8B550C            mov edx,[ebp+0xc]
00001800  891485204A0100    mov [eax*4+0x14a20],edx
00001807  90                nop
00001808  C9                leave
00001809  C3                ret
0000180A  55                push ebp
0000180B  89E5              mov ebp,esp
0000180D  57                push edi
0000180E  56                push esi
0000180F  53                push ebx
00001810  83EC1C            sub esp,byte +0x1c
00001813  8B452C            mov eax,[ebp+0x2c]
00001816  83F827            cmp eax,byte +0x27
00001819  7E12              jng 0x182d
0000181B  83EC08            sub esp,byte +0x8
0000181E  6A20              push byte +0x20
00001820  68A0000000        push dword 0xa0
00001825  E824FBFFFF        call 0x134e
0000182A  83C410            add esp,byte +0x10
0000182D  83EC08            sub esp,byte +0x8
00001830  6A20              push byte +0x20
00001832  6A20              push byte +0x20
00001834  E815FBFFFF        call 0x134e
00001839  83C410            add esp,byte +0x10
0000183C  8B452C            mov eax,[ebp+0x2c]
0000183F  8B0485204A0100    mov eax,[eax*4+0x14a20]
00001846  85C0              test eax,eax
00001848  742C              jz 0x1876
0000184A  8B452C            mov eax,[ebp+0x2c]
0000184D  8B0485204A0100    mov eax,[eax*4+0x14a20]
00001854  8945E4            mov [ebp-0x1c],eax
00001857  83EC40            sub esp,byte +0x40
0000185A  89E0              mov eax,esp
0000185C  89C2              mov edx,eax
0000185E  8D5D08            lea ebx,[ebp+0x8]
00001861  B810000000        mov eax,0x10
00001866  89D7              mov edi,edx
00001868  89DE              mov esi,ebx
0000186A  89C1              mov ecx,eax
0000186C  F3A5              rep movsd
0000186E  8B45E4            mov eax,[ebp-0x1c]
00001871  FFD0              call eax
00001873  83C440            add esp,byte +0x40
00001876  90                nop
00001877  8D65F4            lea esp,[ebp-0xc]
0000187A  5B                pop ebx
0000187B  5E                pop esi
0000187C  5F                pop edi
0000187D  5D                pop ebp
0000187E  C3                ret
0000187F  55                push ebp
00001880  89E5              mov ebp,esp
00001882  83EC18            sub esp,byte +0x18
00001885  83EC08            sub esp,byte +0x8
00001888  680D330000        push dword 0x330d
0000188D  68E0410100        push dword 0x141e0
00001892  E854EEFFFF        call 0x6eb
00001897  83C410            add esp,byte +0x10
0000189A  8B452C            mov eax,[ebp+0x2c]
0000189D  83EC08            sub esp,byte +0x8
000018A0  8D55F5            lea edx,[ebp-0xb]
000018A3  52                push edx
000018A4  50                push eax
000018A5  E8D6010000        call 0x1a80
000018AA  83C410            add esp,byte +0x10
000018AD  83EC08            sub esp,byte +0x8
000018B0  8D45F5            lea eax,[ebp-0xb]
000018B3  50                push eax
000018B4  68E0410100        push dword 0x141e0
000018B9  E82DEEFFFF        call 0x6eb
000018BE  83C410            add esp,byte +0x10
000018C1  83EC0C            sub esp,byte +0xc
000018C4  68E0410100        push dword 0x141e0
000018C9  E897ECFFFF        call 0x565
000018CE  83C410            add esp,byte +0x10
000018D1  8B452C            mov eax,[ebp+0x2c]
000018D4  8B048500400000    mov eax,[eax*4+0x4000]
000018DB  83EC08            sub esp,byte +0x8
000018DE  50                push eax
000018DF  68E0410100        push dword 0x141e0
000018E4  E802EEFFFF        call 0x6eb
000018E9  83C410            add esp,byte +0x10
000018EC  83EC0C            sub esp,byte +0xc
000018EF  68E0410100        push dword 0x141e0
000018F4  E86CECFFFF        call 0x565
000018F9  83C410            add esp,byte +0x10
000018FC  90                nop
000018FD  C9                leave
000018FE  C3                ret
000018FF  55                push ebp
00001900  89E5              mov ebp,esp
00001902  83EC08            sub esp,byte +0x8
00001905  83EC0C            sub esp,byte +0xc
00001908  FF750C            push dword [ebp+0xc]
0000190B  E8F6010000        call 0x1b06
00001910  83C410            add esp,byte +0x10
00001913  8B5508            mov edx,[ebp+0x8]
00001916  668904D520420100  mov [edx*8+0x14220],ax
0000191E  8B4508            mov eax,[ebp+0x8]
00001921  66C704C522420100  mov word [eax*8+0x14222],0x8
         -0800
0000192B  8B4508            mov eax,[ebp+0x8]
0000192E  C604C52442010000  mov byte [eax*8+0x14224],0x0
00001936  8B4508            mov eax,[ebp+0x8]
00001939  C604C5254201008E  mov byte [eax*8+0x14225],0x8e
00001941  83EC0C            sub esp,byte +0xc
00001944  FF750C            push dword [ebp+0xc]
00001947  E8C2010000        call 0x1b0e
0000194C  83C410            add esp,byte +0x10
0000194F  8B5508            mov edx,[ebp+0x8]
00001952  668904D526420100  mov [edx*8+0x14226],ax
0000195A  90                nop
0000195B  C9                leave
0000195C  C3                ret
0000195D  55                push ebp
0000195E  89E5              mov ebp,esp
00001960  B820420100        mov eax,0x14220
00001965  A3224E0100        mov [0x14e22],eax
0000196A  66C705204E0100FF  mov word [dword 0x14e20],0x7ff
         -07
00001973  B8204E0100        mov eax,0x14e20
00001978  0F0118            lidt [eax]
0000197B  90                nop
0000197C  5D                pop ebp
0000197D  C3                ret
0000197E  55                push ebp
0000197F  89E5              mov ebp,esp
00001981  8B5508            mov edx,[ebp+0x8]
00001984  8B450C            mov eax,[ebp+0xc]
00001987  39D0              cmp eax,edx
00001989  7E02              jng 0x198d
0000198B  89D0              mov eax,edx
0000198D  5D                pop ebp
0000198E  C3                ret
0000198F  55                push ebp
00001990  89E5              mov ebp,esp
00001992  53                push ebx
00001993  83EC10            sub esp,byte +0x10
00001996  C645FB01          mov byte [ebp-0x5],0x1
0000199A  C745F400000000    mov dword [ebp-0xc],0x0
000019A1  EB2D              jmp short 0x19d0
000019A3  0FB655FB          movzx edx,byte [ebp-0x5]
000019A7  8B4DF4            mov ecx,[ebp-0xc]
000019AA  8B4508            mov eax,[ebp+0x8]
000019AD  01C8              add eax,ecx
000019AF  8A08              mov cl,[eax]
000019B1  8B5DF4            mov ebx,[ebp-0xc]
000019B4  8B450C            mov eax,[ebp+0xc]
000019B7  01D8              add eax,ebx
000019B9  8A00              mov al,[eax]
000019BB  38C1              cmp cl,al
000019BD  0F94C0            setz al
000019C0  0FB6C0            movzx eax,al
000019C3  21D0              and eax,edx
000019C5  85C0              test eax,eax
000019C7  0F95C0            setnz al
000019CA  8845FB            mov [ebp-0x5],al
000019CD  FF45F4            inc dword [ebp-0xc]
000019D0  8B55F4            mov edx,[ebp-0xc]
000019D3  8B4508            mov eax,[ebp+0x8]
000019D6  01D0              add eax,edx
000019D8  8A00              mov al,[eax]
000019DA  84C0              test al,al
000019DC  740E              jz 0x19ec
000019DE  8B55F4            mov edx,[ebp-0xc]
000019E1  8B450C            mov eax,[ebp+0xc]
000019E4  01D0              add eax,edx
000019E6  8A00              mov al,[eax]
000019E8  84C0              test al,al
000019EA  75B7              jnz 0x19a3
000019EC  0FB655FB          movzx edx,byte [ebp-0x5]
000019F0  8B4DF4            mov ecx,[ebp-0xc]
000019F3  8B4508            mov eax,[ebp+0x8]
000019F6  01C8              add eax,ecx
000019F8  8A08              mov cl,[eax]
000019FA  8B5DF4            mov ebx,[ebp-0xc]
000019FD  8B450C            mov eax,[ebp+0xc]
00001A00  01D8              add eax,ebx
00001A02  8A00              mov al,[eax]
00001A04  38C1              cmp cl,al
00001A06  0F94C0            setz al
00001A09  0FB6C0            movzx eax,al
00001A0C  21D0              and eax,edx
00001A0E  85C0              test eax,eax
00001A10  0F95C0            setnz al
00001A13  8845FB            mov [ebp-0x5],al
00001A16  8A45FB            mov al,[ebp-0x5]
00001A19  83C410            add esp,byte +0x10
00001A1C  5B                pop ebx
00001A1D  5D                pop ebp
00001A1E  C3                ret
00001A1F  55                push ebp
00001A20  89E5              mov ebp,esp
00001A22  83EC10            sub esp,byte +0x10
00001A25  C745FC00000000    mov dword [ebp-0x4],0x0
00001A2C  EB17              jmp short 0x1a45
00001A2E  8B55FC            mov edx,[ebp-0x4]
00001A31  8B4508            mov eax,[ebp+0x8]
00001A34  01D0              add eax,edx
00001A36  8B4DFC            mov ecx,[ebp-0x4]
00001A39  8B550C            mov edx,[ebp+0xc]
00001A3C  01CA              add edx,ecx
00001A3E  8A00              mov al,[eax]
00001A40  8802              mov [edx],al
00001A42  FF45FC            inc dword [ebp-0x4]
00001A45  8B45FC            mov eax,[ebp-0x4]
00001A48  3B4510            cmp eax,[ebp+0x10]
00001A4B  7CE1              jl 0x1a2e
00001A4D  90                nop
00001A4E  90                nop
00001A4F  C9                leave
00001A50  C3                ret
00001A51  55                push ebp
00001A52  89E5              mov ebp,esp
00001A54  83EC14            sub esp,byte +0x14
00001A57  8B450C            mov eax,[ebp+0xc]
00001A5A  8845EC            mov [ebp-0x14],al
00001A5D  8B4508            mov eax,[ebp+0x8]
00001A60  8945FC            mov [ebp-0x4],eax
00001A63  EB11              jmp short 0x1a76
00001A65  8B45FC            mov eax,[ebp-0x4]
00001A68  8D5001            lea edx,[eax+0x1]
00001A6B  8955FC            mov [ebp-0x4],edx
00001A6E  8A55EC            mov dl,[ebp-0x14]
00001A71  8810              mov [eax],dl
00001A73  FF4D10            dec dword [ebp+0x10]
00001A76  837D1000          cmp dword [ebp+0x10],byte +0x0
00001A7A  75E9              jnz 0x1a65
00001A7C  90                nop
00001A7D  90                nop
00001A7E  C9                leave
00001A7F  C3                ret
00001A80  55                push ebp
00001A81  89E5              mov ebp,esp
00001A83  83EC10            sub esp,byte +0x10
00001A86  8B4508            mov eax,[ebp+0x8]
00001A89  8945F8            mov [ebp-0x8],eax
00001A8C  837DF800          cmp dword [ebp-0x8],byte +0x0
00001A90  7903              jns 0x1a95
00001A92  F75D08            neg dword [ebp+0x8]
00001A95  C745FC00000000    mov dword [ebp-0x4],0x0
00001A9C  8B4508            mov eax,[ebp+0x8]
00001A9F  B90A000000        mov ecx,0xa
00001AA4  99                cdq
00001AA5  F7F9              idiv ecx
00001AA7  89D0              mov eax,edx
00001AA9  8D4830            lea ecx,[eax+0x30]
00001AAC  8B45FC            mov eax,[ebp-0x4]
00001AAF  8D5001            lea edx,[eax+0x1]
00001AB2  8955FC            mov [ebp-0x4],edx
00001AB5  89C2              mov edx,eax
00001AB7  8B450C            mov eax,[ebp+0xc]
00001ABA  01D0              add eax,edx
00001ABC  88CA              mov dl,cl
00001ABE  8810              mov [eax],dl
00001AC0  8B4D08            mov ecx,[ebp+0x8]
00001AC3  B867666666        mov eax,0x66666667
00001AC8  F7E9              imul ecx
00001ACA  C1FA02            sar edx,byte 0x2
00001ACD  89C8              mov eax,ecx
00001ACF  C1F81F            sar eax,byte 0x1f
00001AD2  29C2              sub edx,eax
00001AD4  89D0              mov eax,edx
00001AD6  894508            mov [ebp+0x8],eax
00001AD9  837D0800          cmp dword [ebp+0x8],byte +0x0
00001ADD  7FBD              jg 0x1a9c
00001ADF  837DF800          cmp dword [ebp-0x8],byte +0x0
00001AE3  7913              jns 0x1af8
00001AE5  8B45FC            mov eax,[ebp-0x4]
00001AE8  8D5001            lea edx,[eax+0x1]
00001AEB  8955FC            mov [ebp-0x4],edx
00001AEE  89C2              mov edx,eax
00001AF0  8B450C            mov eax,[ebp+0xc]
00001AF3  01D0              add eax,edx
00001AF5  C6002D            mov byte [eax],0x2d
00001AF8  8B55FC            mov edx,[ebp-0x4]
00001AFB  8B450C            mov eax,[ebp+0xc]
00001AFE  01D0              add eax,edx
00001B00  C60000            mov byte [eax],0x0
00001B03  90                nop
00001B04  C9                leave
00001B05  C3                ret
00001B06  55                push ebp
00001B07  89E5              mov ebp,esp
00001B09  8B4508            mov eax,[ebp+0x8]
00001B0C  5D                pop ebp
00001B0D  C3                ret
00001B0E  55                push ebp
00001B0F  89E5              mov ebp,esp
00001B11  8B4508            mov eax,[ebp+0x8]
00001B14  C1F810            sar eax,byte 0x10
00001B17  5D                pop ebp
00001B18  C3                ret
00001B19  55                push ebp
00001B1A  89E5              mov ebp,esp
00001B1C  57                push edi
00001B1D  56                push esi
00001B1E  53                push ebx
00001B1F  83EC24            sub esp,byte +0x24
00001B22  8B5510            mov edx,[ebp+0x10]
00001B25  8B4508            mov eax,[ebp+0x8]
00001B28  8945D8            mov [ebp-0x28],eax
00001B2B  8B450C            mov eax,[ebp+0xc]
00001B2E  8945DC            mov [ebp-0x24],eax
00001B31  88D0              mov al,dl
00001B33  8845D4            mov [ebp-0x2c],al
00001B36  C745EC0C000000    mov dword [ebp-0x14],0xc
00001B3D  C745E800000000    mov dword [ebp-0x18],0x0
00001B44  8B45D8            mov eax,[ebp-0x28]
00001B47  83E00F            and eax,byte +0xf
00001B4A  89C6              mov esi,eax
00001B4C  8B45DC            mov eax,[ebp-0x24]
00001B4F  83E000            and eax,byte +0x0
00001B52  89C7              mov edi,eax
00001B54  8B45EC            mov eax,[ebp-0x14]
00001B57  99                cdq
00001B58  F77D18            idiv dword [ebp+0x18]
00001B5B  89D0              mov eax,edx
00001B5D  89C2              mov edx,eax
00001B5F  8B4514            mov eax,[ebp+0x14]
00001B62  01C2              add edx,eax
00001B64  8D8624330000      lea eax,[esi+0x3324]
00001B6A  8A00              mov al,[eax]
00001B6C  8802              mov [edx],al
00001B6E  FF4DEC            dec dword [ebp-0x14]
00001B71  8B45D8            mov eax,[ebp-0x28]
00001B74  8B55DC            mov edx,[ebp-0x24]
00001B77  0FACD004          shrd eax,edx,0x4
00001B7B  C1EA04            shr edx,byte 0x4
00001B7E  8945D8            mov [ebp-0x28],eax
00001B81  8955DC            mov [ebp-0x24],edx
00001B84  8B45D8            mov eax,[ebp-0x28]
00001B87  80F400            xor ah,0x0
00001B8A  89C1              mov ecx,eax
00001B8C  8B45DC            mov eax,[ebp-0x24]
00001B8F  80F400            xor ah,0x0
00001B92  89C3              mov ebx,eax
00001B94  89D8              mov eax,ebx
00001B96  09C8              or eax,ecx
00001B98  85C0              test eax,eax
00001B9A  75A8              jnz 0x1b44
00001B9C  807DD420          cmp byte [ebp-0x2c],0x20
00001BA0  7438              jz 0x1bda
00001BA2  8B4514            mov eax,[ebp+0x14]
00001BA5  8A55D4            mov dl,[ebp-0x2c]
00001BA8  8810              mov [eax],dl
00001BAA  FF45E8            inc dword [ebp-0x18]
00001BAD  EB2B              jmp short 0x1bda
00001BAF  8B45EC            mov eax,[ebp-0x14]
00001BB2  99                cdq
00001BB3  F77D18            idiv dword [ebp+0x18]
00001BB6  89D0              mov eax,edx
00001BB8  89C2              mov edx,eax
00001BBA  8B4514            mov eax,[ebp+0x14]
00001BBD  8D0C02            lea ecx,[edx+eax]
00001BC0  8B45E8            mov eax,[ebp-0x18]
00001BC3  8D5001            lea edx,[eax+0x1]
00001BC6  8955E8            mov [ebp-0x18],edx
00001BC9  99                cdq
00001BCA  F77D18            idiv dword [ebp+0x18]
00001BCD  89D0              mov eax,edx
00001BCF  89C2              mov edx,eax
00001BD1  8B4514            mov eax,[ebp+0x14]
00001BD4  01C2              add edx,eax
00001BD6  8A01              mov al,[ecx]
00001BD8  8802              mov [edx],al
00001BDA  FF45EC            inc dword [ebp-0x14]
00001BDD  837DEC0C          cmp dword [ebp-0x14],byte +0xc
00001BE1  7ECC              jng 0x1baf
00001BE3  8B45E8            mov eax,[ebp-0x18]
00001BE6  99                cdq
00001BE7  F77D18            idiv dword [ebp+0x18]
00001BEA  89D0              mov eax,edx
00001BEC  89C2              mov edx,eax
00001BEE  8B4514            mov eax,[ebp+0x14]
00001BF1  01D0              add eax,edx
00001BF3  C60000            mov byte [eax],0x0
00001BF6  90                nop
00001BF7  83C424            add esp,byte +0x24
00001BFA  5B                pop ebx
00001BFB  5E                pop esi
00001BFC  5F                pop edi
00001BFD  5D                pop ebp
00001BFE  C3                ret
00001BFF  55                push ebp
00001C00  89E5              mov ebp,esp
00001C02  83EC08            sub esp,byte +0x8
00001C05  83EC0C            sub esp,byte +0xc
00001C08  FF7508            push dword [ebp+0x8]
00001C0B  E850040000        call 0x2060
00001C10  83C410            add esp,byte +0x10
00001C13  E856040000        call 0x206e
00001C18  90                nop
00001C19  C9                leave
00001C1A  C3                ret
00001C1B  55                push ebp
00001C1C  89E5              mov ebp,esp
00001C1E  83EC10            sub esp,byte +0x10
00001C21  8B4508            mov eax,[ebp+0x8]
00001C24  8945F8            mov [ebp-0x8],eax
00001C27  8A45F4            mov al,[ebp-0xc]
00001C2A  83E0DF            and eax,byte -0x21
00001C2D  8845F4            mov [ebp-0xc],al
00001C30  8A45F4            mov al,[ebp-0xc]
00001C33  83E0FE            and eax,byte -0x2
00001C36  8845F4            mov [ebp-0xc],al
00001C39  8A45F4            mov al,[ebp-0xc]
00001C3C  83E0FB            and eax,byte -0x5
00001C3F  8845F4            mov [ebp-0xc],al
00001C42  8A45F4            mov al,[ebp-0xc]
00001C45  83C802            or eax,byte +0x2
00001C48  8845F4            mov [ebp-0xc],al
00001C4B  8A45F4            mov al,[ebp-0xc]
00001C4E  83E07F            and eax,byte +0x7f
00001C51  8845F4            mov [ebp-0xc],al
00001C54  8A45F4            mov al,[ebp-0xc]
00001C57  83E0EF            and eax,byte -0x11
00001C5A  8845F4            mov [ebp-0xc],al
00001C5D  8A45F5            mov al,[ebp-0xb]
00001C60  83E0F1            and eax,byte -0xf
00001C63  8845F5            mov [ebp-0xb],al
00001C66  8A45F4            mov al,[ebp-0xc]
00001C69  83E0BF            and eax,byte -0x41
00001C6C  8845F4            mov [ebp-0xc],al
00001C6F  8A45F4            mov al,[ebp-0xc]
00001C72  83E0F7            and eax,byte -0x9
00001C75  8845F4            mov [ebp-0xc],al
00001C78  8B45F4            mov eax,[ebp-0xc]
00001C7B  25FF0F0000        and eax,0xfff
00001C80  8945F4            mov [ebp-0xc],eax
00001C83  8A45F5            mov al,[ebp-0xb]
00001C86  83E0FE            and eax,byte -0x2
00001C89  8845F5            mov [ebp-0xb],al
00001C8C  C745FC00000000    mov dword [ebp-0x4],0x0
00001C93  EB17              jmp short 0x1cac
00001C95  8B45FC            mov eax,[ebp-0x4]
00001C98  8D148500000000    lea edx,[eax*4+0x0]
00001C9F  8B45F8            mov eax,[ebp-0x8]
00001CA2  01C2              add edx,eax
00001CA4  8B45F4            mov eax,[ebp-0xc]
00001CA7  8902              mov [edx],eax
00001CA9  FF45FC            inc dword [ebp-0x4]
00001CAC  817DFCFF030000    cmp dword [ebp-0x4],0x3ff
00001CB3  7EE0              jng 0x1c95
00001CB5  90                nop
00001CB6  90                nop
00001CB7  C9                leave
00001CB8  C3                ret
00001CB9  55                push ebp
00001CBA  89E5              mov ebp,esp
00001CBC  83EC10            sub esp,byte +0x10
00001CBF  8B4508            mov eax,[ebp+0x8]
00001CC2  8945F8            mov [ebp-0x8],eax
00001CC5  C745FC00000000    mov dword [ebp-0x4],0x0
00001CCC  EB03              jmp short 0x1cd1
00001CCE  FF45FC            inc dword [ebp-0x4]
00001CD1  8B45FC            mov eax,[ebp-0x4]
00001CD4  8D148500000000    lea edx,[eax*4+0x0]
00001CDB  8B45F8            mov eax,[ebp-0x8]
00001CDE  01D0              add eax,edx
00001CE0  8A4001            mov al,[eax+0x1]
00001CE3  83E00E            and eax,byte +0xe
00001CE6  84C0              test al,al
00001CE8  7409              jz 0x1cf3
00001CEA  817DFCFF030000    cmp dword [ebp-0x4],0x3ff
00001CF1  7EDB              jng 0x1cce
00001CF3  817DFCFF030000    cmp dword [ebp-0x4],0x3ff
00001CFA  7F14              jg 0x1d10
00001CFC  8B45FC            mov eax,[ebp-0x4]
00001CFF  8D148500000000    lea edx,[eax*4+0x0]
00001D06  8B45F8            mov eax,[ebp-0x8]
00001D09  01C2              add edx,eax
00001D0B  8B450C            mov eax,[ebp+0xc]
00001D0E  8902              mov [edx],eax
00001D10  817DFCFF030000    cmp dword [ebp-0x4],0x3ff
00001D17  0F9EC0            setng al
00001D1A  C9                leave
00001D1B  C3                ret
00001D1C  55                push ebp
00001D1D  89E5              mov ebp,esp
00001D1F  83EC38            sub esp,byte +0x38
00001D22  8B4510            mov eax,[ebp+0x10]
00001D25  8845D4            mov [ebp-0x2c],al
00001D28  8B4508            mov eax,[ebp+0x8]
00001D2B  8945EC            mov [ebp-0x14],eax
00001D2E  807DD400          cmp byte [ebp-0x2c],0x0
00001D32  7407              jz 0x1d3b
00001D34  A1A0400000        mov eax,[0x40a0]
00001D39  EB05              jmp short 0x1d40
00001D3B  B800000000        mov eax,0x0
00001D40  8945F4            mov [ebp-0xc],eax
00001D43  C645F300          mov byte [ebp-0xd],0x0
00001D47  EB53              jmp short 0x1d9c
00001D49  8B45F4            mov eax,[ebp-0xc]
00001D4C  8D148500000000    lea edx,[eax*4+0x0]
00001D53  8B45EC            mov eax,[ebp-0x14]
00001D56  01D0              add eax,edx
00001D58  8A5001            mov dl,[eax+0x1]
00001D5B  C0EA04            shr dl,byte 0x4
00001D5E  0FB6D2            movzx edx,dl
00001D61  0FB64802          movzx ecx,byte [eax+0x2]
00001D65  C1E104            shl ecx,byte 0x4
00001D68  09CA              or edx,ecx
00001D6A  0FB64003          movzx eax,byte [eax+0x3]
00001D6E  C1E00C            shl eax,byte 0xc
00001D71  09D0              or eax,edx
00001D73  C1E00C            shl eax,byte 0xc
00001D76  C1F80C            sar eax,byte 0xc
00001D79  C1E00C            shl eax,byte 0xc
00001D7C  83EC08            sub esp,byte +0x8
00001D7F  FF750C            push dword [ebp+0xc]
00001D82  50                push eax
00001D83  E872020000        call 0x1ffa
00001D88  83C410            add esp,byte +0x10
00001D8B  0A45F3            or al,[ebp-0xd]
00001D8E  0FB6C0            movzx eax,al
00001D91  85C0              test eax,eax
00001D93  0F95C0            setnz al
00001D96  8845F3            mov [ebp-0xd],al
00001D99  FF45F4            inc dword [ebp-0xc]
00001D9C  8B45F4            mov eax,[ebp-0xc]
00001D9F  8D148500000000    lea edx,[eax*4+0x0]
00001DA6  8B45EC            mov eax,[ebp-0x14]
00001DA9  01D0              add eax,edx
00001DAB  8A4001            mov al,[eax+0x1]
00001DAE  83E00E            and eax,byte +0xe
00001DB1  84C0              test al,al
00001DB3  7413              jz 0x1dc8
00001DB5  817DF4FF030000    cmp dword [ebp-0xc],0x3ff
00001DBC  7F0A              jg 0x1dc8
00001DBE  8A45F3            mov al,[ebp-0xd]
00001DC1  83F001            xor eax,byte +0x1
00001DC4  84C0              test al,al
00001DC6  7581              jnz 0x1d49
00001DC8  817DF4FF030000    cmp dword [ebp-0xc],0x3ff
00001DCF  0F8FD8000000      jg near 0x1ead
00001DD5  8A45F3            mov al,[ebp-0xd]
00001DD8  83F001            xor eax,byte +0x1
00001DDB  84C0              test al,al
00001DDD  0F84CA000000      jz near 0x1ead
00001DE3  E8E0EAFFFF        call 0x8c8
00001DE8  8945E8            mov [ebp-0x18],eax
00001DEB  8B45E8            mov eax,[ebp-0x18]
00001DEE  C1E00C            shl eax,byte 0xc
00001DF1  8945E4            mov [ebp-0x1c],eax
00001DF4  83EC0C            sub esp,byte +0xc
00001DF7  FF75E4            push dword [ebp-0x1c]
00001DFA  E86C010000        call 0x1f6b
00001DFF  83C410            add esp,byte +0x10
00001E02  83EC08            sub esp,byte +0x8
00001E05  FF750C            push dword [ebp+0xc]
00001E08  FF75E4            push dword [ebp-0x1c]
00001E0B  E8EA010000        call 0x1ffa
00001E10  83C410            add esp,byte +0x10
00001E13  0A45F3            or al,[ebp-0xd]
00001E16  0FB6C0            movzx eax,al
00001E19  85C0              test eax,eax
00001E1B  0F95C0            setnz al
00001E1E  8845F3            mov [ebp-0xd],al
00001E21  8A45E0            mov al,[ebp-0x20]
00001E24  83E0DF            and eax,byte -0x21
00001E27  8845E0            mov [ebp-0x20],al
00001E2A  8A45E0            mov al,[ebp-0x20]
00001E2D  83C801            or eax,byte +0x1
00001E30  8845E0            mov [ebp-0x20],al
00001E33  8A45E0            mov al,[ebp-0x20]
00001E36  83E0FB            and eax,byte -0x5
00001E39  8845E0            mov [ebp-0x20],al
00001E3C  8A45E0            mov al,[ebp-0x20]
00001E3F  83C802            or eax,byte +0x2
00001E42  8845E0            mov [ebp-0x20],al
00001E45  8A45E0            mov al,[ebp-0x20]
00001E48  83E07F            and eax,byte +0x7f
00001E4B  8845E0            mov [ebp-0x20],al
00001E4E  8A45E0            mov al,[ebp-0x20]
00001E51  83E0EF            and eax,byte -0x11
00001E54  8845E0            mov [ebp-0x20],al
00001E57  8A45E1            mov al,[ebp-0x1f]
00001E5A  83E0F1            and eax,byte -0xf
00001E5D  83C802            or eax,byte +0x2
00001E60  8845E1            mov [ebp-0x1f],al
00001E63  8A45E0            mov al,[ebp-0x20]
00001E66  83E0BF            and eax,byte -0x41
00001E69  8845E0            mov [ebp-0x20],al
00001E6C  8A45E0            mov al,[ebp-0x20]
00001E6F  83E0F7            and eax,byte -0x9
00001E72  8845E0            mov [ebp-0x20],al
00001E75  8B45E8            mov eax,[ebp-0x18]
00001E78  C1E00C            shl eax,byte 0xc
00001E7B  C1F80C            sar eax,byte 0xc
00001E7E  C1E00C            shl eax,byte 0xc
00001E81  89C2              mov edx,eax
00001E83  8B45E0            mov eax,[ebp-0x20]
00001E86  25FF0F0000        and eax,0xfff
00001E8B  09D0              or eax,edx
00001E8D  8945E0            mov [ebp-0x20],eax
00001E90  8A45E1            mov al,[ebp-0x1f]
00001E93  83E0FE            and eax,byte -0x2
00001E96  8845E1            mov [ebp-0x1f],al
00001E99  83EC08            sub esp,byte +0x8
00001E9C  FF75E0            push dword [ebp-0x20]
00001E9F  FF7508            push dword [ebp+0x8]
00001EA2  E812FEFFFF        call 0x1cb9
00001EA7  83C410            add esp,byte +0x10
00001EAA  FF45F4            inc dword [ebp-0xc]
00001EAD  807DF300          cmp byte [ebp-0xd],0x0
00001EB1  7415              jz 0x1ec8
00001EB3  8B45F4            mov eax,[ebp-0xc]
00001EB6  83F802            cmp eax,byte +0x2
00001EB9  7D05              jnl 0x1ec0
00001EBB  B802000000        mov eax,0x2
00001EC0  83E802            sub eax,byte +0x2
00001EC3  A3A0400000        mov [0x40a0],eax
00001EC8  8A45F3            mov al,[ebp-0xd]
00001ECB  C9                leave
00001ECC  C3                ret
00001ECD  55                push ebp
00001ECE  89E5              mov ebp,esp
00001ED0  83EC18            sub esp,byte +0x18
00001ED3  C745F400000000    mov dword [ebp-0xc],0x0
00001EDA  EB7F              jmp short 0x1f5b
00001EDC  8A45F0            mov al,[ebp-0x10]
00001EDF  83E0DF            and eax,byte -0x21
00001EE2  8845F0            mov [ebp-0x10],al
00001EE5  8A45F0            mov al,[ebp-0x10]
00001EE8  83C801            or eax,byte +0x1
00001EEB  8845F0            mov [ebp-0x10],al
00001EEE  8A45F0            mov al,[ebp-0x10]
00001EF1  83E0FB            and eax,byte -0x5
00001EF4  8845F0            mov [ebp-0x10],al
00001EF7  8A45F0            mov al,[ebp-0x10]
00001EFA  83C802            or eax,byte +0x2
00001EFD  8845F0            mov [ebp-0x10],al
00001F00  8A45F0            mov al,[ebp-0x10]
00001F03  83E0E7            and eax,byte -0x19
00001F06  8845F0            mov [ebp-0x10],al
00001F09  8B45F0            mov eax,[ebp-0x10]
00001F0C  257FFEFFFF        and eax,0xfffffe7f
00001F11  668945F0          mov [ebp-0x10],ax
00001F15  8A45F1            mov al,[ebp-0xf]
00001F18  83E0F1            and eax,byte -0xf
00001F1B  83C802            or eax,byte +0x2
00001F1E  8845F1            mov [ebp-0xf],al
00001F21  8A45F0            mov al,[ebp-0x10]
00001F24  83E0BF            and eax,byte -0x41
00001F27  8845F0            mov [ebp-0x10],al
00001F2A  8B45F4            mov eax,[ebp-0xc]
00001F2D  C1E00C            shl eax,byte 0xc
00001F30  C1F80C            sar eax,byte 0xc
00001F33  C1E00C            shl eax,byte 0xc
00001F36  89C2              mov edx,eax
00001F38  8B45F0            mov eax,[ebp-0x10]
00001F3B  25FF0F0000        and eax,0xfff
00001F40  09D0              or eax,edx
00001F42  8945F0            mov [ebp-0x10],eax
00001F45  83EC04            sub esp,byte +0x4
00001F48  6A01              push byte +0x1
00001F4A  FF75F0            push dword [ebp-0x10]
00001F4D  FF7508            push dword [ebp+0x8]
00001F50  E8C7FDFFFF        call 0x1d1c
00001F55  83C410            add esp,byte +0x10
00001F58  FF45F4            inc dword [ebp-0xc]
00001F5B  8B45F4            mov eax,[ebp-0xc]
00001F5E  3B450C            cmp eax,[ebp+0xc]
00001F61  0F8C75FFFFFF      jl near 0x1edc
00001F67  90                nop
00001F68  90                nop
00001F69  C9                leave
00001F6A  C3                ret
00001F6B  55                push ebp
00001F6C  89E5              mov ebp,esp
00001F6E  83EC10            sub esp,byte +0x10
00001F71  8B4508            mov eax,[ebp+0x8]
00001F74  8945F8            mov [ebp-0x8],eax
00001F77  8A45F4            mov al,[ebp-0xc]
00001F7A  83E0DF            and eax,byte -0x21
00001F7D  8845F4            mov [ebp-0xc],al
00001F80  8A45F4            mov al,[ebp-0xc]
00001F83  83E0FE            and eax,byte -0x2
00001F86  8845F4            mov [ebp-0xc],al
00001F89  8A45F4            mov al,[ebp-0xc]
00001F8C  83E0FB            and eax,byte -0x5
00001F8F  8845F4            mov [ebp-0xc],al
00001F92  8A45F4            mov al,[ebp-0xc]
00001F95  83C802            or eax,byte +0x2
00001F98  8845F4            mov [ebp-0xc],al
00001F9B  8A45F4            mov al,[ebp-0xc]
00001F9E  83E0E7            and eax,byte -0x19
00001FA1  8845F4            mov [ebp-0xc],al
00001FA4  8A45F4            mov al,[ebp-0xc]
00001FA7  83E0BF            and eax,byte -0x41
00001FAA  8845F4            mov [ebp-0xc],al
00001FAD  8A45F5            mov al,[ebp-0xb]
00001FB0  83E0F1            and eax,byte -0xf
00001FB3  8845F5            mov [ebp-0xb],al
00001FB6  8B45F4            mov eax,[ebp-0xc]
00001FB9  257FFEFFFF        and eax,0xfffffe7f
00001FBE  668945F4          mov [ebp-0xc],ax
00001FC2  8B45F4            mov eax,[ebp-0xc]
00001FC5  25FF0F0000        and eax,0xfff
00001FCA  8945F4            mov [ebp-0xc],eax
00001FCD  C745FC00000000    mov dword [ebp-0x4],0x0
00001FD4  EB17              jmp short 0x1fed
00001FD6  8B45FC            mov eax,[ebp-0x4]
00001FD9  8D148500000000    lea edx,[eax*4+0x0]
00001FE0  8B45F8            mov eax,[ebp-0x8]
00001FE3  01C2              add edx,eax
00001FE5  8B45F4            mov eax,[ebp-0xc]
00001FE8  8902              mov [edx],eax
00001FEA  FF45FC            inc dword [ebp-0x4]
00001FED  817DFCFF030000    cmp dword [ebp-0x4],0x3ff
00001FF4  7EE0              jng 0x1fd6
00001FF6  90                nop
00001FF7  90                nop
00001FF8  C9                leave
00001FF9  C3                ret
00001FFA  55                push ebp
00001FFB  89E5              mov ebp,esp
00001FFD  83EC10            sub esp,byte +0x10
00002000  8B4508            mov eax,[ebp+0x8]
00002003  8945F8            mov [ebp-0x8],eax
00002006  C745FC00000000    mov dword [ebp-0x4],0x0
0000200D  EB03              jmp short 0x2012
0000200F  FF45FC            inc dword [ebp-0x4]
00002012  8B45FC            mov eax,[ebp-0x4]
00002015  8D148500000000    lea edx,[eax*4+0x0]
0000201C  8B45F8            mov eax,[ebp-0x8]
0000201F  01D0              add eax,edx
00002021  8A4001            mov al,[eax+0x1]
00002024  83E00E            and eax,byte +0xe
00002027  84C0              test al,al
00002029  7409              jz 0x2034
0000202B  817DFCFF030000    cmp dword [ebp-0x4],0x3ff
00002032  7EDB              jng 0x200f
00002034  817DFCFF030000    cmp dword [ebp-0x4],0x3ff
0000203B  7F14              jg 0x2051
0000203D  8B45FC            mov eax,[ebp-0x4]
00002040  8D148500000000    lea edx,[eax*4+0x0]
00002047  8B45F8            mov eax,[ebp-0x8]
0000204A  01C2              add edx,eax
0000204C  8B450C            mov eax,[ebp+0xc]
0000204F  8902              mov [edx],eax
00002051  817DFCFF030000    cmp dword [ebp-0x4],0x3ff
00002058  0F9EC0            setng al
0000205B  C9                leave
0000205C  C3                ret
0000205D  6690              xchg ax,ax
0000205F  90                nop
00002060  55                push ebp
00002061  89E5              mov ebp,esp
00002063  8B442408          mov eax,[esp+0x8]
00002067  0F22D8            mov cr3,eax
0000206A  89EC              mov esp,ebp
0000206C  5D                pop ebp
0000206D  C3                ret
0000206E  55                push ebp
0000206F  89E5              mov ebp,esp
00002071  0F20C0            mov eax,cr0
00002074  0D00000080        or eax,0x80000000
00002079  0F22C0            mov cr0,eax
0000207C  89EC              mov esp,ebp
0000207E  5D                pop ebp
0000207F  C3                ret
00002080  53                push ebx
00002081  68656C6C20        push dword 0x206c6c65
00002086  4C                dec esp
00002087  6F                outsd
00002088  61                popa
00002089  6465640A00        or al,[fs:eax]
0000208E  49                dec ecx
0000208F  6E                outsb
00002090  697469616C697A69  imul esi,[ecx+ebp*2+0x61],dword 0x697a696c
00002098  6E                outsb
00002099  67204B65          and [bp+di+0x65],cl
0000209D  7962              jns 0x2101
0000209F  6F                outsd
000020A0  61                popa
000020A1  7264              jc 0x2107
000020A3  0A00              or al,[eax]
000020A5  50                push eax
000020A6  61                popa
000020A7  67696E6720656E61  imul ebp,[bp+0x67],dword 0x616e6520
000020AF  626C6564          bound ebp,[ebp+0x64]
000020B3  006E6F            add [esi+0x6f],ch
000020B6  7420              jz 0x20d8
000020B8  61                popa
000020B9  207365            and [ebx+0x65],dh
000020BC  676D              a16 insd
000020BE  656E              gs outsb
000020C0  7400              jz 0x20c2
000020C2  7573              jnz 0x2137
000020C4  61                popa
000020C5  626C6500          bound ebp,[ebp+0x0]
000020C9  756E              jnz 0x2139
000020CB  7573              jnz 0x2140
000020CD  61                popa
000020CE  626C6500          bound ebp,[ebp+0x0]
000020D2  4D                dec ebp
000020D3  45                inc ebp
000020D4  4D                dec ebp
000020D5  0000              add [eax],al
000020D7  004552            add [ebp+0x52],al
000020DA  52                push edx
000020DB  4F                dec edi
000020DC  52                push edx
000020DD  0000              add [eax],al
000020DF  00BB1D000056      add [ebx+0x5600001d],bh
000020E5  2200              and al,[eax]
000020E7  00D5              add ch,dl
000020E9  1D0000EC1D        sbb eax,0x1dec0000
000020EE  0000              add [eax],al
000020F0  031E              add ebx,[esi]
000020F2  0000              add [eax],al
000020F4  1A1E              sbb bl,[esi]
000020F6  0000              add [eax],al
000020F8  311E              xor [esi],ebx
000020FA  0000              add [eax],al
000020FC  48                dec eax
000020FD  1E                push ds
000020FE  0000              add [eax],al
00002100  5F                pop edi
00002101  1E                push ds
00002102  0000              add [eax],al
00002104  761E              jna 0x2124
00002106  0000              add [eax],al
00002108  8D1E              lea ebx,[esi]
0000210A  0000              add [eax],al
0000210C  A4                movsb
0000210D  1E                push ds
0000210E  0000              add [eax],al
00002110  BB1E0000D2        mov ebx,0xd200001e
00002115  1E                push ds
00002116  0000              add [eax],al
00002118  E91E0000FE        jmp 0xfe00213b
0000211D  1E                push ds
0000211E  0000              add [eax],al
00002120  151F00002C        adc eax,0x2c00001f
00002125  1F                pop ds
00002126  0000              add [eax],al
00002128  43                inc ebx
00002129  1F                pop ds
0000212A  0000              add [eax],al
0000212C  5A                pop edx
0000212D  1F                pop ds
0000212E  0000              add [eax],al
00002130  711F              jno 0x2151
00002132  0000              add [eax],al
00002134  881F              mov [edi],bl
00002136  0000              add [eax],al
00002138  9F                lahf
00002139  1F                pop ds
0000213A  0000              add [eax],al
0000213C  B61F              mov dh,0x1f
0000213E  0000              add [eax],al
00002140  CD1F              int 0x1f
00002142  0000              add [eax],al
00002144  E41F              in al,0x1f
00002146  0000              add [eax],al
00002148  FB                sti
00002149  1F                pop ds
0000214A  0000              add [eax],al
0000214C  1220              adc ah,[eax]
0000214E  0000              add [eax],al
00002150  2920              sub [eax],esp
00002152  0000              add [eax],al
00002154  56                push esi
00002155  2200              and al,[eax]
00002157  004020            add [eax+0x20],al
0000215A  0000              add [eax],al
0000215C  57                push edi
0000215D  2000              and [eax],al
0000215F  006E20            add [esi+0x20],ch
00002162  0000              add [eax],al
00002164  8520              test [eax],esp
00002166  0000              add [eax],al
00002168  9C                pushf
00002169  2000              and [eax],al
0000216B  00B3200000CA      add [ebx-0x35ffffe0],dh
00002171  2000              and [eax],al
00002173  00E1              add cl,ah
00002175  2000              and [eax],al
00002177  00F8              add al,bh
00002179  2000              and [eax],al
0000217B  000F              add [edi],cl
0000217D  2100              and [eax],eax
0000217F  0026              add [esi],ah
00002181  2100              and [eax],eax
00002183  003D21000056      add [dword 0x56000021],bh
00002189  2200              and al,[eax]
0000218B  00542100          add [ecx+0x0],dl
0000218F  006B21            add [ebx+0x21],ch
00002192  0000              add [eax],al
00002194  82                db 0x82
00002195  2100              and [eax],eax
00002197  0099210000B0      add [ecx-0x4fffffdf],bl
0000219D  2100              and [eax],eax
0000219F  00C7              add bh,al
000021A1  2100              and [eax],eax
000021A3  00DB              add bl,bl
000021A5  2100              and [eax],eax
000021A7  00EF              add bh,ch
000021A9  2100              and [eax],eax
000021AB  0003              add [ebx],al
000021AD  2200              and al,[eax]
000021AF  0017              add [edi],dl
000021B1  2200              and al,[eax]
000021B3  002B              add [ebx],ch
000021B5  2200              and al,[eax]
000021B7  005622            add [esi+0x22],dl
000021BA  0000              add [eax],al
000021BC  56                push esi
000021BD  2200              and al,[eax]
000021BF  005622            add [esi+0x22],dl
000021C2  0000              add [eax],al
000021C4  3F                aas
000021C5  2200              and al,[eax]
000021C7  00546963          add [ecx+ebp*2+0x63],dl
000021CB  6B3A20            imul edi,[edx],byte +0x20
000021CE  000A              add [edx],cl
000021D0  00446976          add [ecx+ebp*2+0x76],al
000021D4  6973696F6E2042    imul esi,[ebx+0x69],dword 0x42206e6f
000021DB  7920              jns 0x21fd
000021DD  5A                pop edx
000021DE  65726F            gs jc 0x2250
000021E1  00446562          add [ebp+0x62],al
000021E5  7567              jnz 0x224e
000021E7  004E6F            add [esi+0x6f],cl
000021EA  6E                outsb
000021EB  204D61            and [ebp+0x61],cl
000021EE  736B              jnc 0x225b
000021F0  61                popa
000021F1  626C6520          bound ebp,[ebp+0x20]
000021F5  49                dec ecx
000021F6  6E                outsb
000021F7  7465              jz 0x225e
000021F9  7272              jc 0x226d
000021FB  7570              jnz 0x226d
000021FD  7400              jz 0x21ff
000021FF  42                inc edx
00002200  7265              jc 0x2267
00002202  61                popa
00002203  6B706F69          imul esi,[eax+0x6f],byte +0x69
00002207  6E                outsb
00002208  7400              jz 0x220a
0000220A  49                dec ecx
0000220B  6E                outsb
0000220C  746F              jz 0x227d
0000220E  20446574          and [ebp+0x74],al
00002212  6563746564        arpl [gs:ebp+0x64],si
00002217  204F76            and [edi+0x76],cl
0000221A  657266            gs jc 0x2283
0000221D  6C                insb
0000221E  6F                outsd
0000221F  7700              ja 0x2221
00002221  4F                dec edi
00002222  7574              jnz 0x2298
00002224  206F66            and [edi+0x66],ch
00002227  20426F            and [edx+0x6f],al
0000222A  756E              jnz 0x229a
0000222C  647300            fs jnc 0x222f
0000222F  49                dec ecx
00002230  6E                outsb
00002231  7661              jna 0x2294
00002233  6C                insb
00002234  6964204F70636F64  imul esp,[eax+0x4f],dword 0x646f6370
0000223C  65004E6F          add [gs:esi+0x6f],cl
00002240  20436F            and [ebx+0x6f],al
00002243  7072              jo 0x22b7
00002245  6F                outsd
00002246  636573            arpl [ebp+0x73],sp
00002249  736F              jnc 0x22ba
0000224B  7200              jc 0x224d
0000224D  44                inc esp
0000224E  6F                outsd
0000224F  7562              jnz 0x22b3
00002251  6C                insb
00002252  65204661          and [gs:esi+0x61],al
00002256  756C              jnz 0x22c4
00002258  7400              jz 0x225a
0000225A  43                inc ebx
0000225B  6F                outsd
0000225C  7072              jo 0x22d0
0000225E  6F                outsd
0000225F  636573            arpl [ebp+0x73],sp
00002262  736F              jnc 0x22d3
00002264  7220              jc 0x2286
00002266  53                push ebx
00002267  65676D            gs a16 insd
0000226A  656E              gs outsb
0000226C  7420              jz 0x228e
0000226E  4F                dec edi
0000226F  7665              jna 0x22d6
00002271  7272              jc 0x22e5
00002273  756E              jnz 0x22e3
00002275  004261            add [edx+0x61],al
00002278  6420545353        and [fs:ebx+edx*2+0x53],dl
0000227D  005365            add [ebx+0x65],dl
00002280  676D              a16 insd
00002282  656E              gs outsb
00002284  7420              jz 0x22a6
00002286  4E                dec esi
00002287  6F                outsd
00002288  7420              jz 0x22aa
0000228A  50                push eax
0000228B  7265              jc 0x22f2
0000228D  7365              jnc 0x22f4
0000228F  6E                outsb
00002290  7400              jz 0x2292
00002292  53                push ebx
00002293  7461              jz 0x22f6
00002295  636B20            arpl [ebx+0x20],bp
00002298  46                inc esi
00002299  61                popa
0000229A  756C              jnz 0x2308
0000229C  7400              jz 0x229e
0000229E  47                inc edi
0000229F  656E              gs outsb
000022A1  657261            gs jc 0x2305
000022A4  6C                insb
000022A5  205072            and [eax+0x72],dl
000022A8  6F                outsd
000022A9  7465              jz 0x2310
000022AB  6374696F          arpl [ecx+ebp*2+0x6f],si
000022AF  6E                outsb
000022B0  204661            and [esi+0x61],al
000022B3  756C              jnz 0x2321
000022B5  7400              jz 0x22b7
000022B7  50                push eax
000022B8  61                popa
000022B9  6765204661        and [gs:bp+0x61],al
000022BE  756C              jnz 0x232c
000022C0  7400              jz 0x22c2
000022C2  55                push ebp
000022C3  6E                outsb
000022C4  6B6E6F77          imul ebp,[esi+0x6f],byte +0x77
000022C8  6E                outsb
000022C9  20496E            and [ecx+0x6e],cl
000022CC  7465              jz 0x2333
000022CE  7272              jc 0x2342
000022D0  7570              jnz 0x2342
000022D2  7400              jz 0x22d4
000022D4  43                inc ebx
000022D5  6F                outsd
000022D6  7072              jo 0x234a
000022D8  6F                outsd
000022D9  636573            arpl [ebp+0x73],sp
000022DC  736F              jnc 0x234d
000022DE  7220              jc 0x2300
000022E0  46                inc esi
000022E1  61                popa
000022E2  756C              jnz 0x2350
000022E4  7400              jz 0x22e6
000022E6  41                inc ecx
000022E7  6C                insb
000022E8  69676E6D656E74    imul esp,[edi+0x6e],dword 0x746e656d
000022EF  204368            and [ebx+0x68],al
000022F2  65636B00          arpl [gs:ebx+0x0],bp
000022F6  4D                dec ebp
000022F7  61                popa
000022F8  636869            arpl [eax+0x69],bp
000022FB  6E                outsb
000022FC  65204368          and [gs:ebx+0x68],al
00002300  65636B00          arpl [gs:ebx+0x0],bp
00002304  52                push edx
00002305  657365            gs jnc 0x236d
00002308  7276              jc 0x2380
0000230A  6564007265        add [fs:edx+0x65],dh
0000230F  636569            arpl [ebp+0x69],sp
00002312  7665              jna 0x2379
00002314  6420696E          and [fs:ecx+0x6e],ch
00002318  7465              jz 0x237f
0000231A  7272              jc 0x238e
0000231C  7570              jnz 0x238e
0000231E  743A              jz 0x235a
00002320  2000              and [eax],al
00002322  0000              add [eax],al
00002324  3031              xor [ecx],dh
00002326  3233              xor dh,[ebx]
00002328  3435              xor al,0x35
0000232A  3637              ss aaa
0000232C  3839              cmp [ecx],bh
0000232E  41                inc ecx
0000232F  42                inc edx
00002330  43                inc ebx
00002331  44                inc esp
00002332  45                inc ebp
00002333  46                inc esi
00002334  47                inc edi
00002335  48                dec eax
00002336  49                dec ecx
00002337  4A                dec edx
00002338  4B                dec ebx
00002339  4C                dec esp
0000233A  4D                dec ebp
0000233B  4E                dec esi
0000233C  4F                dec edi
0000233D  50                push eax
0000233E  51                push ecx
0000233F  52                push edx
00002340  53                push ebx
00002341  54                push esp
00002342  55                push ebp
00002343  56                push esi
00002344  57                push edi
00002345  58                pop eax
00002346  59                pop ecx
00002347  5A                pop edx
00002348  61                popa
00002349  626364            bound esp,[ebx+0x64]
0000234C  65666768696A      gs push word 0x6a69
00002352  6B6C6D6E6F        imul ebp,[ebp+ebp*2+0x6e],byte +0x6f
00002357  7071              jo 0x23ca
00002359  7273              jc 0x23ce
0000235B  7475              jz 0x23d2
0000235D  7677              jna 0x23d6
0000235F  7879              js 0x23da
00002361  7A00              jpe 0x2363
00002363  001400            add [eax+eax],dl
00002366  0000              add [eax],al
00002368  0000              add [eax],al
0000236A  0000              add [eax],al
0000236C  017A52            add [edx+0x52],edi
0000236F  0001              add [ecx],al
00002371  7C08              jl 0x237b
00002373  011B              add [ebx],ebx
00002375  0C04              or al,0x4
00002377  0488              add al,0x88
00002379  0100              add [eax],eax
0000237B  001C00            add [eax+eax],bl
0000237E  0000              add [eax],al
00002380  1C00              sbb al,0x0
00002382  0000              add [eax],al
00002384  83DCFF            sbb esp,byte -0x1
00002387  FF9901000000      call far [ecx+0x1]
0000238D  41                inc ecx
0000238E  0E                push cs
0000238F  088502420D05      or [ebp+0x50d4202],al
00002395  039501C50C04      add edx,[ebp+0x40cc501]
0000239B  0414              add al,0x14
0000239D  0000              add [eax],al
0000239F  0000              add [eax],al
000023A1  0000              add [eax],al
000023A3  0001              add [ecx],al
000023A5  7A52              jpe 0x23f9
000023A7  0001              add [ecx],al
000023A9  7C08              jl 0x23b3
000023AB  011B              add [ebx],ebx
000023AD  0C04              or al,0x4
000023AF  0488              add al,0x88
000023B1  0100              add [eax],eax
000023B3  001C00            add [eax+eax],bl
000023B6  0000              add [eax],al
000023B8  1C00              sbb al,0x0
000023BA  0000              add [eax],al
000023BC  F7DF              neg edi
000023BE  FF                db 0xff
000023BF  FF37              push dword [edi]
000023C1  0000              add [eax],al
000023C3  0000              add [eax],al
000023C5  41                inc ecx
000023C6  0E                push cs
000023C7  088502420D05      or [ebp+0x50d4202],al
000023CD  73C5              jnc 0x2394
000023CF  0C04              or al,0x4
000023D1  0400              add al,0x0
000023D3  001C00            add [eax+eax],bl
000023D6  0000              add [eax],al
000023D8  3C00              cmp al,0x0
000023DA  0000              add [eax],al
000023DC  0E                push cs
000023DD  E0FF              loopne 0x23de
000023DF  FF6B00            jmp far [ebx+0x0]
000023E2  0000              add [eax],al
000023E4  00410E            add [ecx+0xe],al
000023E7  088502420D05      or [ebp+0x50d4202],al
000023ED  0267C5            add ah,[edi-0x3b]
000023F0  0C04              or al,0x4
000023F2  0400              add al,0x0
000023F4  1C00              sbb al,0x0
000023F6  0000              add [eax],al
000023F8  5C                pop esp
000023F9  0000              add [eax],al
000023FB  0059E0            add [ecx-0x20],bl
000023FE  FF                db 0xff
000023FF  FF2E              jmp far [esi]
00002401  0000              add [eax],al
00002403  0000              add [eax],al
00002405  41                inc ecx
00002406  0E                push cs
00002407  088502420D05      or [ebp+0x50d4202],al
0000240D  6AC5              push byte -0x3b
0000240F  0C04              or al,0x4
00002411  0400              add al,0x0
00002413  001C00            add [eax+eax],bl
00002416  0000              add [eax],al
00002418  7C00              jl 0x241a
0000241A  0000              add [eax],al
0000241C  67E0FF            loopne 0x241e,cx
0000241F  FFE2              jmp edx
00002421  0000              add [eax],al
00002423  0000              add [eax],al
00002425  41                inc ecx
00002426  0E                push cs
00002427  088502420D05      or [ebp+0x50d4202],al
0000242D  02DE              add bl,dh
0000242F  C50C04            lds ecx,[esp+eax]
00002432  0400              add al,0x0
00002434  1C00              sbb al,0x0
00002436  0000              add [eax],al
00002438  9C                pushf
00002439  0000              add [eax],al
0000243B  0029              add [ecx],ch
0000243D  E1FF              loope 0x243e
0000243F  FF4600            inc dword [esi+0x0]
00002442  0000              add [eax],al
00002444  00410E            add [ecx+0xe],al
00002447  088502420D05      or [ebp+0x50d4202],al
0000244D  0242C5            add al,[edx-0x3b]
00002450  0C04              or al,0x4
00002452  0400              add al,0x0
00002454  1C00              sbb al,0x0
00002456  0000              add [eax],al
00002458  BC0000004F        mov esp,0x4f000000
0000245D  E1FF              loope 0x245e
0000245F  FF6D00            jmp far [ebp+0x0]
00002462  0000              add [eax],al
00002464  00410E            add [ecx+0xe],al
00002467  088502420D05      or [ebp+0x50d4202],al
0000246D  0269C5            add ch,[ecx-0x3b]
00002470  0C04              or al,0x4
00002472  0400              add al,0x0
00002474  1C00              sbb al,0x0
00002476  0000              add [eax],al
00002478  DC00              fadd qword [eax]
0000247A  0000              add [eax],al
0000247C  9C                pushf
0000247D  E1FF              loope 0x247e
0000247F  FF7600            push dword [esi+0x0]
00002482  0000              add [eax],al
00002484  00410E            add [ecx+0xe],al
00002487  088502420D05      or [ebp+0x50d4202],al
0000248D  0272C5            add dh,[edx-0x3b]
00002490  0C04              or al,0x4
00002492  0400              add al,0x0
00002494  1C00              sbb al,0x0
00002496  0000              add [eax],al
00002498  FC                cld
00002499  0000              add [eax],al
0000249B  00F2              add dl,dh
0000249D  E1FF              loope 0x249e
0000249F  FF5D00            call far [ebp+0x0]
000024A2  0000              add [eax],al
000024A4  00410E            add [ecx+0xe],al
000024A7  088502420D05      or [ebp+0x50d4202],al
000024AD  0259C5            add bl,[ecx-0x3b]
000024B0  0C04              or al,0x4
000024B2  0400              add al,0x0
000024B4  1C00              sbb al,0x0
000024B6  0000              add [eax],al
000024B8  1C01              sbb al,0x1
000024BA  0000              add [eax],al
000024BC  2F                das
000024BD  E2FF              loop 0x24be
000024BF  FF                db 0xff
000024C0  3D00000000        cmp eax,0x0
000024C5  41                inc ecx
000024C6  0E                push cs
000024C7  088502420D05      or [ebp+0x50d4202],al
000024CD  79C5              jns 0x2494
000024CF  0C04              or al,0x4
000024D1  0400              add al,0x0
000024D3  001400            add [eax+eax],dl
000024D6  0000              add [eax],al
000024D8  0000              add [eax],al
000024DA  0000              add [eax],al
000024DC  017A52            add [edx+0x52],edi
000024DF  0001              add [ecx],al
000024E1  7C08              jl 0x24eb
000024E3  011B              add [ebx],ebx
000024E5  0C04              or al,0x4
000024E7  0488              add al,0x88
000024E9  0100              add [eax],eax
000024EB  001C00            add [eax+eax],bl
000024EE  0000              add [eax],al
000024F0  1C00              sbb al,0x0
000024F2  0000              add [eax],al
000024F4  34E2              xor al,0xe2
000024F6  FF                db 0xff
000024F7  FF6601            jmp [esi+0x1]
000024FA  0000              add [eax],al
000024FC  00410E            add [ecx+0xe],al
000024FF  088502420D05      or [ebp+0x50d4202],al
00002505  036201            add esp,[edx+0x1]
00002508  C50C04            lds ecx,[esp+eax]
0000250B  0414              add al,0x14
0000250D  0000              add [eax],al
0000250F  0000              add [eax],al
00002511  0000              add [eax],al
00002513  0001              add [ecx],al
00002515  7A52              jpe 0x2569
00002517  0001              add [ecx],al
00002519  7C08              jl 0x2523
0000251B  011B              add [ebx],ebx
0000251D  0C04              or al,0x4
0000251F  0488              add al,0x88
00002521  0100              add [eax],eax
00002523  001C00            add [eax+eax],bl
00002526  0000              add [eax],al
00002528  1C00              sbb al,0x0
0000252A  0000              add [eax],al
0000252C  62                db 0x62
0000252D  E3FF              jecxz 0x252e
0000252F  FF                db 0xff
00002530  3A00              cmp al,[eax]
00002532  0000              add [eax],al
00002534  00410E            add [ecx+0xe],al
00002537  088502420D05      or [ebp+0x50d4202],al
0000253D  76C5              jna 0x2504
0000253F  0C04              or al,0x4
00002541  0400              add al,0x0
00002543  001C00            add [eax+eax],bl
00002546  0000              add [eax],al
00002548  3C00              cmp al,0x0
0000254A  0000              add [eax],al
0000254C  7CE3              jl 0x2531
0000254E  FF                db 0xff
0000254F  FF29              jmp far [ecx]
00002551  0000              add [eax],al
00002553  0000              add [eax],al
00002555  41                inc ecx
00002556  0E                push cs
00002557  088502420D05      or [ebp+0x50d4202],al
0000255D  65C50C04          lds ecx,[gs:esp+eax]
00002561  0400              add al,0x0
00002563  001C00            add [eax+eax],bl
00002566  0000              add [eax],al
00002568  5C                pop esp
00002569  0000              add [eax],al
0000256B  0085E3FFFF45      add [ebp+0x45ffffe3],al
00002571  0000              add [eax],al
00002573  0000              add [eax],al
00002575  41                inc ecx
00002576  0E                push cs
00002577  088502420D05      or [ebp+0x50d4202],al
0000257D  0241C5            add al,[ecx-0x3b]
00002580  0C04              or al,0x4
00002582  0400              add al,0x0
00002584  2000              and [eax],al
00002586  0000              add [eax],al
00002588  7C00              jl 0x258a
0000258A  0000              add [eax],al
0000258C  AA                stosb
0000258D  E3FF              jecxz 0x258e
0000258F  FF                db 0xff
00002590  7E00              jng 0x2592
00002592  0000              add [eax],al
00002594  00410E            add [ecx+0xe],al
00002597  088502420D05      or [ebp+0x50d4202],al
0000259D  44                inc esp
0000259E  830302            add dword [ebx],byte +0x2
000025A1  76C5              jna 0x2568
000025A3  C3                ret
000025A4  0C04              or al,0x4
000025A6  0400              add al,0x0
000025A8  1C00              sbb al,0x0
000025AA  0000              add [eax],al
000025AC  A000000004        mov al,[0x4000000]
000025B1  E4FF              in al,0xff
000025B3  FF7200            push dword [edx+0x0]
000025B6  0000              add [eax],al
000025B8  00410E            add [ecx+0xe],al
000025BB  088502420D05      or [ebp+0x50d4202],al
000025C1  026EC5            add ch,[esi-0x3b]
000025C4  0C04              or al,0x4
000025C6  0400              add al,0x0
000025C8  2800              sub [eax],al
000025CA  0000              add [eax],al
000025CC  C00000            rol byte [eax],byte 0x0
000025CF  0056E4            add [esi-0x1c],dl
000025D2  FF                db 0xff
000025D3  FFC7              inc edi
000025D5  0100              add [eax],eax
000025D7  0000              add [eax],al
000025D9  41                inc ecx
000025DA  0E                push cs
000025DB  088502420D05      or [ebp+0x50d4202],al
000025E1  45                inc ebp
000025E2  8603              xchg al,[ebx]
000025E4  830403BC          add dword [ebx+eax],byte -0x44
000025E8  01C3              add ebx,eax
000025EA  41                inc ecx
000025EB  C641C50C          mov byte [ecx-0x3b],0xc
000025EF  0404              add al,0x4
000025F1  0000              add [eax],al
000025F3  001400            add [eax+eax],dl
000025F6  0000              add [eax],al
000025F8  0000              add [eax],al
000025FA  0000              add [eax],al
000025FC  017A52            add [edx+0x52],edi
000025FF  0001              add [ecx],al
00002601  7C08              jl 0x260b
00002603  011B              add [ebx],ebx
00002605  0C04              or al,0x4
00002607  0488              add al,0x88
00002609  0100              add [eax],eax
0000260B  001C00            add [eax+eax],bl
0000260E  0000              add [eax],al
00002610  1C00              sbb al,0x0
00002612  0000              add [eax],al
00002614  D9E5              fxam
00002616  FF                db 0xff
00002617  FFA100000000      jmp [ecx+0x0]
0000261D  41                inc ecx
0000261E  0E                push cs
0000261F  088502420D05      or [ebp+0x50d4202],al
00002625  029DC50C0404      add bl,[ebp+0x4040cc5]
0000262B  001C00            add [eax+eax],bl
0000262E  0000              add [eax],al
00002630  3C00              cmp al,0x0
00002632  0000              add [eax],al
00002634  5A                pop edx
00002635  E6FF              out 0xff,al
00002637  FF5000            call [eax+0x0]
0000263A  0000              add [eax],al
0000263C  00410E            add [ecx+0xe],al
0000263F  088502420D05      or [ebp+0x50d4202],al
00002645  024CC50C          add cl,[ebp+eax*8+0xc]
00002649  0404              add al,0x4
0000264B  001C00            add [eax+eax],bl
0000264E  0000              add [eax],al
00002650  5C                pop esp
00002651  0000              add [eax],al
00002653  008AE6FFFF5B      add [edx+0x5bffffe6],cl
00002659  0000              add [eax],al
0000265B  0000              add [eax],al
0000265D  41                inc ecx
0000265E  0E                push cs
0000265F  088502420D05      or [ebp+0x50d4202],al
00002665  0257C5            add dl,[edi-0x3b]
00002668  0C04              or al,0x4
0000266A  0400              add al,0x0
0000266C  1C00              sbb al,0x0
0000266E  0000              add [eax],al
00002670  7C00              jl 0x2672
00002672  0000              add [eax],al
00002674  C5                db 0xc5
00002675  E6FF              out 0xff,al
00002677  FF1C00            call far [eax+eax]
0000267A  0000              add [eax],al
0000267C  00410E            add [ecx+0xe],al
0000267F  088502420D05      or [ebp+0x50d4202],al
00002685  58                pop eax
00002686  C50C04            lds ecx,[esp+eax]
00002689  0400              add al,0x0
0000268B  001400            add [eax+eax],dl
0000268E  0000              add [eax],al
00002690  0000              add [eax],al
00002692  0000              add [eax],al
00002694  017A52            add [edx+0x52],edi
00002697  0001              add [ecx],al
00002699  7C08              jl 0x26a3
0000269B  011B              add [ebx],ebx
0000269D  0C04              or al,0x4
0000269F  0488              add al,0x88
000026A1  0100              add [eax],eax
000026A3  001C00            add [eax+eax],bl
000026A6  0000              add [eax],al
000026A8  1C00              sbb al,0x0
000026AA  0000              add [eax],al
000026AC  A9E6FFFF29        test eax,0x29ffffe6
000026B1  0000              add [eax],al
000026B3  0000              add [eax],al
000026B5  41                inc ecx
000026B6  0E                push cs
000026B7  088502420D05      or [ebp+0x50d4202],al
000026BD  65C50C04          lds ecx,[gs:esp+eax]
000026C1  0400              add al,0x0
000026C3  001C00            add [eax+eax],bl
000026C6  0000              add [eax],al
000026C8  3C00              cmp al,0x0
000026CA  0000              add [eax],al
000026CC  B2E6              mov dl,0xe6
000026CE  FF                db 0xff
000026CF  FF1B              call far [ebx]
000026D1  0000              add [eax],al
000026D3  0000              add [eax],al
000026D5  41                inc ecx
000026D6  0E                push cs
000026D7  088502420D05      or [ebp+0x50d4202],al
000026DD  57                push edi
000026DE  C50C04            lds ecx,[esp+eax]
000026E1  0400              add al,0x0
000026E3  001C00            add [eax+eax],bl
000026E6  0000              add [eax],al
000026E8  5C                pop esp
000026E9  0000              add [eax],al
000026EB  00ADE6FFFFC1      add [ebp-0x3e00001a],ch
000026F1  0400              add al,0x0
000026F3  0000              add [eax],al
000026F5  41                inc ecx
000026F6  0E                push cs
000026F7  088502420D05      or [ebp+0x50d4202],al
000026FD  03BD04C50C04      add edi,[ebp+0x40cc504]
00002703  0414              add al,0x14
00002705  0000              add [eax],al
00002707  0000              add [eax],al
00002709  0000              add [eax],al
0000270B  0001              add [ecx],al
0000270D  7A52              jpe 0x2761
0000270F  0001              add [ecx],al
00002711  7C08              jl 0x271b
00002713  011B              add [ebx],ebx
00002715  0C04              or al,0x4
00002717  0488              add al,0x88
00002719  0100              add [eax],eax
0000271B  001C00            add [eax+eax],bl
0000271E  0000              add [eax],al
00002720  1C00              sbb al,0x0
00002722  0000              add [eax],al
00002724  36EBFF            ss jmp short 0x2726
00002727  FF7000            push dword [eax+0x0]
0000272A  0000              add [eax],al
0000272C  00410E            add [ecx+0xe],al
0000272F  088502420D05      or [ebp+0x50d4202],al
00002735  026CC50C          add ch,[ebp+eax*8+0xc]
00002739  0404              add al,0x4
0000273B  001C00            add [eax+eax],bl
0000273E  0000              add [eax],al
00002740  3C00              cmp al,0x0
00002742  0000              add [eax],al
00002744  86EB              xchg ch,bl
00002746  FF                db 0xff
00002747  FF6900            jmp far [ecx+0x0]
0000274A  0000              add [eax],al
0000274C  00410E            add [ecx+0xe],al
0000274F  088502420D05      or [ebp+0x50d4202],al
00002755  0265C5            add ah,[ebp-0x3b]
00002758  0C04              or al,0x4
0000275A  0400              add al,0x0
0000275C  1400              adc al,0x0
0000275E  0000              add [eax],al
00002760  0000              add [eax],al
00002762  0000              add [eax],al
00002764  017A52            add [edx+0x52],edi
00002767  0001              add [ecx],al
00002769  7C08              jl 0x2773
0000276B  011B              add [ebx],ebx
0000276D  0C04              or al,0x4
0000276F  0488              add al,0x88
00002771  0100              add [eax],eax
00002773  001C00            add [eax+eax],bl
00002776  0000              add [eax],al
00002778  1C00              sbb al,0x0
0000277A  0000              add [eax],al
0000277C  B7EB              mov bh,0xeb
0000277E  FF                db 0xff
0000277F  FF1B              call far [ebx]
00002781  0000              add [eax],al
00002783  0000              add [eax],al
00002785  41                inc ecx
00002786  0E                push cs
00002787  088502420D05      or [ebp+0x50d4202],al
0000278D  57                push edi
0000278E  C50C04            lds ecx,[esp+eax]
00002791  0400              add al,0x0
00002793  001C00            add [eax+eax],bl
00002796  0000              add [eax],al
00002798  3C00              cmp al,0x0
0000279A  0000              add [eax],al
0000279C  B2EB              mov dl,0xeb
0000279E  FF                db 0xff
0000279F  FF1F              call far [edi]
000027A1  0000              add [eax],al
000027A3  0000              add [eax],al
000027A5  41                inc ecx
000027A6  0E                push cs
000027A7  088502420D05      or [ebp+0x50d4202],al
000027AD  5B                pop ebx
000027AE  C50C04            lds ecx,[esp+eax]
000027B1  0400              add al,0x0
000027B3  001C00            add [eax+eax],bl
000027B6  0000              add [eax],al
000027B8  5C                pop esp
000027B9  0000              add [eax],al
000027BB  00B1EBFFFF1E      add [ecx+0x1effffeb],dh
000027C1  0000              add [eax],al
000027C3  0000              add [eax],al
000027C5  41                inc ecx
000027C6  0E                push cs
000027C7  088502420D05      or [ebp+0x50d4202],al
000027CD  5A                pop edx
000027CE  C50C04            lds ecx,[esp+eax]
000027D1  0400              add al,0x0
000027D3  001C00            add [eax+eax],bl
000027D6  0000              add [eax],al
000027D8  7C00              jl 0x27da
000027DA  0000              add [eax],al
000027DC  AF                scasd
000027DD  EBFF              jmp short 0x27de
000027DF  FF1F              call far [edi]
000027E1  0000              add [eax],al
000027E3  0000              add [eax],al
000027E5  41                inc ecx
000027E6  0E                push cs
000027E7  088502420D05      or [ebp+0x50d4202],al
000027ED  5B                pop ebx
000027EE  C50C04            lds ecx,[esp+eax]
000027F1  0400              add al,0x0
000027F3  001400            add [eax+eax],dl
000027F6  0000              add [eax],al
000027F8  0000              add [eax],al
000027FA  0000              add [eax],al
000027FC  017A52            add [edx+0x52],edi
000027FF  0001              add [ecx],al
00002801  7C08              jl 0x280b
00002803  011B              add [ebx],ebx
00002805  0C04              or al,0x4
00002807  0488              add al,0x88
00002809  0100              add [eax],eax
0000280B  001C00            add [eax+eax],bl
0000280E  0000              add [eax],al
00002810  1C00              sbb al,0x0
00002812  0000              add [eax],al
00002814  96                xchg eax,esi
00002815  EBFF              jmp short 0x2816
00002817  FF4304            inc dword [ebx+0x4]
0000281A  0000              add [eax],al
0000281C  00410E            add [ecx+0xe],al
0000281F  088502420D05      or [ebp+0x50d4202],al
00002825  033F              add edi,[edi]
00002827  04C5              add al,0xc5
00002829  0C04              or al,0x4
0000282B  041C              add al,0x1c
0000282D  0000              add [eax],al
0000282F  003C00            add [eax+eax],bh
00002832  0000              add [eax],al
00002834  B9EFFFFF1D        mov ecx,0x1dffffef
00002839  0000              add [eax],al
0000283B  0000              add [eax],al
0000283D  41                inc ecx
0000283E  0E                push cs
0000283F  088502420D05      or [ebp+0x50d4202],al
00002845  59                pop ecx
00002846  C50C04            lds ecx,[esp+eax]
00002849  0400              add al,0x0
0000284B  0028              add [eax],ch
0000284D  0000              add [eax],al
0000284F  005C0000          add [eax+eax+0x0],bl
00002853  00B6EFFFFF75      add [esi+0x75ffffef],dh
00002859  0000              add [eax],al
0000285B  0000              add [eax],al
0000285D  41                inc ecx
0000285E  0E                push cs
0000285F  088502420D05      or [ebp+0x50d4202],al
00002865  46                inc esi
00002866  8703              xchg eax,[ebx]
00002868  860483            xchg al,[ebx+eax*4]
0000286B  050268C341        add eax,0x41c36802
00002870  C641C741          mov byte [ecx-0x39],0x41
00002874  C50C04            lds ecx,[esp+eax]
00002877  041C              add al,0x1c
00002879  0000              add [eax],al
0000287B  0088000000FF      add [eax-0x1000000],cl
00002881  EF                out dx,eax
00002882  FF                db 0xff
00002883  FF8000000000      inc dword [eax+0x0]
00002889  41                inc ecx
0000288A  0E                push cs
0000288B  088502420D05      or [ebp+0x50d4202],al
00002891  027CC50C          add bh,[ebp+eax*8+0xc]
00002895  0404              add al,0x4
00002897  001400            add [eax+eax],dl
0000289A  0000              add [eax],al
0000289C  0000              add [eax],al
0000289E  0000              add [eax],al
000028A0  017A52            add [edx+0x52],edi
000028A3  0001              add [ecx],al
000028A5  7C08              jl 0x28af
000028A7  011B              add [ebx],ebx
000028A9  0C04              or al,0x4
000028AB  0488              add al,0x88
000028AD  0100              add [eax],eax
000028AF  001C00            add [eax+eax],bl
000028B2  0000              add [eax],al
000028B4  1C00              sbb al,0x0
000028B6  0000              add [eax],al
000028B8  47                inc edi
000028B9  F0                lock
000028BA  FF                db 0xff
000028BB  FF5E00            call far [esi+0x0]
000028BE  0000              add [eax],al
000028C0  00410E            add [ecx+0xe],al
000028C3  088502420D05      or [ebp+0x50d4202],al
000028C9  025AC5            add bl,[edx-0x3b]
000028CC  0C04              or al,0x4
000028CE  0400              add al,0x0
000028D0  1C00              sbb al,0x0
000028D2  0000              add [eax],al
000028D4  3C00              cmp al,0x0
000028D6  0000              add [eax],al
000028D8  85F0              test eax,esi
000028DA  FF                db 0xff
000028DB  FF21              jmp [ecx]
000028DD  0000              add [eax],al
000028DF  0000              add [eax],al
000028E1  41                inc ecx
000028E2  0E                push cs
000028E3  088502420D05      or [ebp+0x50d4202],al
000028E9  5D                pop ebp
000028EA  C50C04            lds ecx,[esp+eax]
000028ED  0400              add al,0x0
000028EF  001400            add [eax+eax],dl
000028F2  0000              add [eax],al
000028F4  0000              add [eax],al
000028F6  0000              add [eax],al
000028F8  017A52            add [edx+0x52],edi
000028FB  0001              add [ecx],al
000028FD  7C08              jl 0x2907
000028FF  011B              add [ebx],ebx
00002901  0C04              or al,0x4
00002903  0488              add al,0x88
00002905  0100              add [eax],eax
00002907  001C00            add [eax+eax],bl
0000290A  0000              add [eax],al
0000290C  1C00              sbb al,0x0
0000290E  0000              add [eax],al
00002910  6E                outsb
00002911  F0                lock
00002912  FF                db 0xff
00002913  FF11              call [ecx]
00002915  0000              add [eax],al
00002917  0000              add [eax],al
00002919  41                inc ecx
0000291A  0E                push cs
0000291B  088502420D05      or [ebp+0x50d4202],al
00002921  4D                dec ebp
00002922  C50C04            lds ecx,[esp+eax]
00002925  0400              add al,0x0
00002927  0020              add [eax],ah
00002929  0000              add [eax],al
0000292B  003C00            add [eax+eax],bh
0000292E  0000              add [eax],al
00002930  5F                pop edi
00002931  F0                lock
00002932  FF                db 0xff
00002933  FF9000000000      call [eax+0x0]
00002939  41                inc ecx
0000293A  0E                push cs
0000293B  088502420D05      or [ebp+0x50d4202],al
00002941  44                inc esp
00002942  830302            add dword [ebx],byte +0x2
00002945  87C3              xchg eax,ebx
00002947  41                inc ecx
00002948  C50C04            lds ecx,[esp+eax]
0000294B  041C              add al,0x1c
0000294D  0000              add [eax],al
0000294F  006000            add [eax+0x0],ah
00002952  0000              add [eax],al
00002954  CB                retf
00002955  F0                lock
00002956  FF                db 0xff
00002957  FF32              push dword [edx]
00002959  0000              add [eax],al
0000295B  0000              add [eax],al
0000295D  41                inc ecx
0000295E  0E                push cs
0000295F  088502420D05      or [ebp+0x50d4202],al
00002965  6E                outsb
00002966  C50C04            lds ecx,[esp+eax]
00002969  0400              add al,0x0
0000296B  001C00            add [eax+eax],bl
0000296E  0000              add [eax],al
00002970  800000            add byte [eax],0x0
00002973  00DD              add ch,bl
00002975  F0                lock
00002976  FF                db 0xff
00002977  FF2F              jmp far [edi]
00002979  0000              add [eax],al
0000297B  0000              add [eax],al
0000297D  41                inc ecx
0000297E  0E                push cs
0000297F  088502420D05      or [ebp+0x50d4202],al
00002985  6BC50C            imul eax,ebp,byte +0xc
00002988  0404              add al,0x4
0000298A  0000              add [eax],al
0000298C  1C00              sbb al,0x0
0000298E  0000              add [eax],al
00002990  A0000000EC        mov al,[0xec000000]
00002995  F0                lock
00002996  FF                db 0xff
00002997  FF8600000000      inc dword [esi+0x0]
0000299D  41                inc ecx
0000299E  0E                push cs
0000299F  088502420D05      or [ebp+0x50d4202],al
000029A5  0282C50C0404      add al,[edx+0x4040cc5]
000029AB  001C00            add [eax+eax],bl
000029AE  0000              add [eax],al
000029B0  C00000            rol byte [eax],byte 0x0
000029B3  0052F1            add [edx-0xf],dl
000029B6  FF                db 0xff
000029B7  FF08              dec dword [eax]
000029B9  0000              add [eax],al
000029BB  0000              add [eax],al
000029BD  41                inc ecx
000029BE  0E                push cs
000029BF  088502420D05      or [ebp+0x50d4202],al
000029C5  44                inc esp
000029C6  C50C04            lds ecx,[esp+eax]
000029C9  0400              add al,0x0
000029CB  001C00            add [eax+eax],bl
000029CE  0000              add [eax],al
000029D0  E000              loopne 0x29d2
000029D2  0000              add [eax],al
000029D4  3AF1              cmp dh,cl
000029D6  FF                db 0xff
000029D7  FF0B              dec dword [ebx]
000029D9  0000              add [eax],al
000029DB  0000              add [eax],al
000029DD  41                inc ecx
000029DE  0E                push cs
000029DF  088502420D05      or [ebp+0x50d4202],al
000029E5  47                inc edi
000029E6  C50C04            lds ecx,[esp+eax]
000029E9  0400              add al,0x0
000029EB  0028              add [eax],ch
000029ED  0000              add [eax],al
000029EF  0000              add [eax],al
000029F1  0100              add [eax],eax
000029F3  0025F1FFFFE6      add [dword 0xe6fffff1],ah
000029F9  0000              add [eax],al
000029FB  0000              add [eax],al
000029FD  41                inc ecx
000029FE  0E                push cs
000029FF  088502420D05      or [ebp+0x50d4202],al
00002A05  46                inc esi
00002A06  8703              xchg eax,[ebx]
00002A08  860483            xchg al,[ebx+eax*4]
00002A0B  0502D9C341        add eax,0x41c3d902
00002A10  C641C741          mov byte [ecx-0x39],0x41
00002A14  C50C04            lds ecx,[esp+eax]
00002A17  0414              add al,0x14
00002A19  0000              add [eax],al
00002A1B  0000              add [eax],al
00002A1D  0000              add [eax],al
00002A1F  0001              add [ecx],al
00002A21  7A52              jpe 0x2a75
00002A23  0001              add [ecx],al
00002A25  7C08              jl 0x2a2f
00002A27  011B              add [ebx],ebx
00002A29  0C04              or al,0x4
00002A2B  0488              add al,0x88
00002A2D  0100              add [eax],eax
00002A2F  001C00            add [eax+eax],bl
00002A32  0000              add [eax],al
00002A34  1C00              sbb al,0x0
00002A36  0000              add [eax],al
00002A38  C7                db 0xc7
00002A39  F1                int1
00002A3A  FF                db 0xff
00002A3B  FF1C00            call far [eax+eax]
00002A3E  0000              add [eax],al
00002A40  00410E            add [ecx+0xe],al
00002A43  088502420D05      or [ebp+0x50d4202],al
00002A49  58                pop eax
00002A4A  C50C04            lds ecx,[esp+eax]
00002A4D  0400              add al,0x0
00002A4F  001C00            add [eax+eax],bl
00002A52  0000              add [eax],al
00002A54  3C00              cmp al,0x0
00002A56  0000              add [eax],al
00002A58  C3                ret
00002A59  F1                int1
00002A5A  FF                db 0xff
00002A5B  FF9E00000000      call far [esi+0x0]
00002A61  41                inc ecx
00002A62  0E                push cs
00002A63  088502420D05      or [ebp+0x50d4202],al
00002A69  029AC50C0404      add bl,[edx+0x4040cc5]
00002A6F  001C00            add [eax+eax],bl
00002A72  0000              add [eax],al
00002A74  5C                pop esp
00002A75  0000              add [eax],al
00002A77  0041F2            add [ecx-0xe],al
00002A7A  FF                db 0xff
00002A7B  FF6300            jmp [ebx+0x0]
00002A7E  0000              add [eax],al
00002A80  00410E            add [ecx+0xe],al
00002A83  088502420D05      or [ebp+0x50d4202],al
00002A89  025FC5            add bl,[edi-0x3b]
00002A8C  0C04              or al,0x4
00002A8E  0400              add al,0x0
00002A90  1C00              sbb al,0x0
00002A92  0000              add [eax],al
00002A94  7C00              jl 0x2a96
00002A96  0000              add [eax],al
00002A98  84F2              test dl,dh
00002A9A  FF                db 0xff
00002A9B  FFB101000000      push dword [ecx+0x1]
00002AA1  41                inc ecx
00002AA2  0E                push cs
00002AA3  088502420D05      or [ebp+0x50d4202],al
00002AA9  03AD01C50C04      add ebp,[ebp+0x40cc501]
00002AAF  041C              add al,0x1c
00002AB1  0000              add [eax],al
00002AB3  009C00000015F4    add [eax+eax-0xbeb0000],bl
00002ABA  FF                db 0xff
00002ABB  FF9E00000000      call far [esi+0x0]
00002AC1  41                inc ecx
00002AC2  0E                push cs
00002AC3  088502420D05      or [ebp+0x50d4202],al
00002AC9  029AC50C0404      add bl,[edx+0x4040cc5]
00002ACF  001400            add [eax+eax],dl
00002AD2  0000              add [eax],al
00002AD4  0000              add [eax],al
00002AD6  0000              add [eax],al
00002AD8  017A52            add [edx+0x52],edi
00002ADB  0001              add [ecx],al
00002ADD  7C08              jl 0x2ae7
00002ADF  011B              add [ebx],ebx
00002AE1  0C04              or al,0x4
00002AE3  0488              add al,0x88
00002AE5  0100              add [eax],eax
00002AE7  001C00            add [eax+eax],bl
00002AEA  0000              add [eax],al
00002AEC  1C00              sbb al,0x0
00002AEE  0000              add [eax],al
00002AF0  7BF4              jpo 0x2ae6
00002AF2  FF                db 0xff
00002AF3  FF8F00000000      dec dword [edi+0x0]
00002AF9  41                inc ecx
00002AFA  0E                push cs
00002AFB  088502420D05      or [ebp+0x50d4202],al
00002B01  028BC50C0404      add cl,[ebx+0x4040cc5]
00002B07  001C00            add [eax+eax],bl
00002B0A  0000              add [eax],al
00002B0C  3C00              cmp al,0x0
00002B0E  0000              add [eax],al
00002B10  EAF4FFFF630000    jmp 0x0:0x63fffff4
00002B17  0000              add [eax],al
00002B19  41                inc ecx
00002B1A  0E                push cs
00002B1B  088502420D05      or [ebp+0x50d4202],al
00002B21  025FC5            add bl,[edi-0x3b]
00002B24  0C04              or al,0x4
00002B26  0400              add al,0x0
00002B28  0000              add [eax],al
00002B2A  0000              add [eax],al
00002B2C  0000              add [eax],al
00002B2E  0000              add [eax],al
00002B30  0000              add [eax],al
00002B32  0000              add [eax],al
00002B34  0000              add [eax],al
00002B36  0000              add [eax],al
00002B38  0000              add [eax],al
00002B3A  0000              add [eax],al
00002B3C  0000              add [eax],al
00002B3E  0000              add [eax],al
00002B40  0000              add [eax],al
00002B42  0000              add [eax],al
00002B44  0000              add [eax],al
00002B46  0000              add [eax],al
00002B48  0000              add [eax],al
00002B4A  0000              add [eax],al
00002B4C  0000              add [eax],al
00002B4E  0000              add [eax],al
00002B50  0000              add [eax],al
00002B52  0000              add [eax],al
00002B54  0000              add [eax],al
00002B56  0000              add [eax],al
00002B58  0000              add [eax],al
00002B5A  0000              add [eax],al
00002B5C  0000              add [eax],al
00002B5E  0000              add [eax],al
00002B60  0000              add [eax],al
00002B62  0000              add [eax],al
00002B64  0000              add [eax],al
00002B66  0000              add [eax],al
00002B68  0000              add [eax],al
00002B6A  0000              add [eax],al
00002B6C  0000              add [eax],al
00002B6E  0000              add [eax],al
00002B70  0000              add [eax],al
00002B72  0000              add [eax],al
00002B74  0000              add [eax],al
00002B76  0000              add [eax],al
00002B78  0000              add [eax],al
00002B7A  0000              add [eax],al
00002B7C  0000              add [eax],al
00002B7E  0000              add [eax],al
00002B80  0000              add [eax],al
00002B82  0000              add [eax],al
00002B84  0000              add [eax],al
00002B86  0000              add [eax],al
00002B88  0000              add [eax],al
00002B8A  0000              add [eax],al
00002B8C  0000              add [eax],al
00002B8E  0000              add [eax],al
00002B90  0000              add [eax],al
00002B92  0000              add [eax],al
00002B94  0000              add [eax],al
00002B96  0000              add [eax],al
00002B98  0000              add [eax],al
00002B9A  0000              add [eax],al
00002B9C  0000              add [eax],al
00002B9E  0000              add [eax],al
00002BA0  0000              add [eax],al
00002BA2  0000              add [eax],al
00002BA4  0000              add [eax],al
00002BA6  0000              add [eax],al
00002BA8  0000              add [eax],al
00002BAA  0000              add [eax],al
00002BAC  0000              add [eax],al
00002BAE  0000              add [eax],al
00002BB0  0000              add [eax],al
00002BB2  0000              add [eax],al
00002BB4  0000              add [eax],al
00002BB6  0000              add [eax],al
00002BB8  0000              add [eax],al
00002BBA  0000              add [eax],al
00002BBC  0000              add [eax],al
00002BBE  0000              add [eax],al
00002BC0  0000              add [eax],al
00002BC2  0000              add [eax],al
00002BC4  0000              add [eax],al
00002BC6  0000              add [eax],al
00002BC8  0000              add [eax],al
00002BCA  0000              add [eax],al
00002BCC  0000              add [eax],al
00002BCE  0000              add [eax],al
00002BD0  0000              add [eax],al
00002BD2  0000              add [eax],al
00002BD4  0000              add [eax],al
00002BD6  0000              add [eax],al
00002BD8  0000              add [eax],al
00002BDA  0000              add [eax],al
00002BDC  0000              add [eax],al
00002BDE  0000              add [eax],al
00002BE0  0000              add [eax],al
00002BE2  0000              add [eax],al
00002BE4  0000              add [eax],al
00002BE6  0000              add [eax],al
00002BE8  0000              add [eax],al
00002BEA  0000              add [eax],al
00002BEC  0000              add [eax],al
00002BEE  0000              add [eax],al
00002BF0  0000              add [eax],al
00002BF2  0000              add [eax],al
00002BF4  0000              add [eax],al
00002BF6  0000              add [eax],al
00002BF8  0000              add [eax],al
00002BFA  0000              add [eax],al
00002BFC  0000              add [eax],al
00002BFE  0000              add [eax],al
00002C00  0000              add [eax],al
00002C02  0000              add [eax],al
00002C04  0000              add [eax],al
00002C06  0000              add [eax],al
00002C08  0000              add [eax],al
00002C0A  0000              add [eax],al
00002C0C  0000              add [eax],al
00002C0E  0000              add [eax],al
00002C10  0000              add [eax],al
00002C12  0000              add [eax],al
00002C14  0000              add [eax],al
00002C16  0000              add [eax],al
00002C18  0000              add [eax],al
00002C1A  0000              add [eax],al
00002C1C  0000              add [eax],al
00002C1E  0000              add [eax],al
00002C20  0000              add [eax],al
00002C22  0000              add [eax],al
00002C24  0000              add [eax],al
00002C26  0000              add [eax],al
00002C28  0000              add [eax],al
00002C2A  0000              add [eax],al
00002C2C  0000              add [eax],al
00002C2E  0000              add [eax],al
00002C30  0000              add [eax],al
00002C32  0000              add [eax],al
00002C34  0000              add [eax],al
00002C36  0000              add [eax],al
00002C38  0000              add [eax],al
00002C3A  0000              add [eax],al
00002C3C  0000              add [eax],al
00002C3E  0000              add [eax],al
00002C40  0000              add [eax],al
00002C42  0000              add [eax],al
00002C44  0000              add [eax],al
00002C46  0000              add [eax],al
00002C48  0000              add [eax],al
00002C4A  0000              add [eax],al
00002C4C  0000              add [eax],al
00002C4E  0000              add [eax],al
00002C50  0000              add [eax],al
00002C52  0000              add [eax],al
00002C54  0000              add [eax],al
00002C56  0000              add [eax],al
00002C58  0000              add [eax],al
00002C5A  0000              add [eax],al
00002C5C  0000              add [eax],al
00002C5E  0000              add [eax],al
00002C60  0000              add [eax],al
00002C62  0000              add [eax],al
00002C64  0000              add [eax],al
00002C66  0000              add [eax],al
00002C68  0000              add [eax],al
00002C6A  0000              add [eax],al
00002C6C  0000              add [eax],al
00002C6E  0000              add [eax],al
00002C70  0000              add [eax],al
00002C72  0000              add [eax],al
00002C74  0000              add [eax],al
00002C76  0000              add [eax],al
00002C78  0000              add [eax],al
00002C7A  0000              add [eax],al
00002C7C  0000              add [eax],al
00002C7E  0000              add [eax],al
00002C80  0000              add [eax],al
00002C82  0000              add [eax],al
00002C84  0000              add [eax],al
00002C86  0000              add [eax],al
00002C88  0000              add [eax],al
00002C8A  0000              add [eax],al
00002C8C  0000              add [eax],al
00002C8E  0000              add [eax],al
00002C90  0000              add [eax],al
00002C92  0000              add [eax],al
00002C94  0000              add [eax],al
00002C96  0000              add [eax],al
00002C98  0000              add [eax],al
00002C9A  0000              add [eax],al
00002C9C  0000              add [eax],al
00002C9E  0000              add [eax],al
00002CA0  0000              add [eax],al
00002CA2  0000              add [eax],al
00002CA4  0000              add [eax],al
00002CA6  0000              add [eax],al
00002CA8  0000              add [eax],al
00002CAA  0000              add [eax],al
00002CAC  0000              add [eax],al
00002CAE  0000              add [eax],al
00002CB0  0000              add [eax],al
00002CB2  0000              add [eax],al
00002CB4  0000              add [eax],al
00002CB6  0000              add [eax],al
00002CB8  0000              add [eax],al
00002CBA  0000              add [eax],al
00002CBC  0000              add [eax],al
00002CBE  0000              add [eax],al
00002CC0  0000              add [eax],al
00002CC2  0000              add [eax],al
00002CC4  0000              add [eax],al
00002CC6  0000              add [eax],al
00002CC8  0000              add [eax],al
00002CCA  0000              add [eax],al
00002CCC  0000              add [eax],al
00002CCE  0000              add [eax],al
00002CD0  0000              add [eax],al
00002CD2  0000              add [eax],al
00002CD4  0000              add [eax],al
00002CD6  0000              add [eax],al
00002CD8  0000              add [eax],al
00002CDA  0000              add [eax],al
00002CDC  0000              add [eax],al
00002CDE  0000              add [eax],al
00002CE0  0000              add [eax],al
00002CE2  0000              add [eax],al
00002CE4  0000              add [eax],al
00002CE6  0000              add [eax],al
00002CE8  0000              add [eax],al
00002CEA  0000              add [eax],al
00002CEC  0000              add [eax],al
00002CEE  0000              add [eax],al
00002CF0  0000              add [eax],al
00002CF2  0000              add [eax],al
00002CF4  0000              add [eax],al
00002CF6  0000              add [eax],al
00002CF8  0000              add [eax],al
00002CFA  0000              add [eax],al
00002CFC  0000              add [eax],al
00002CFE  0000              add [eax],al
00002D00  0000              add [eax],al
00002D02  0000              add [eax],al
00002D04  0000              add [eax],al
00002D06  0000              add [eax],al
00002D08  0000              add [eax],al
00002D0A  0000              add [eax],al
00002D0C  0000              add [eax],al
00002D0E  0000              add [eax],al
00002D10  0000              add [eax],al
00002D12  0000              add [eax],al
00002D14  0000              add [eax],al
00002D16  0000              add [eax],al
00002D18  0000              add [eax],al
00002D1A  0000              add [eax],al
00002D1C  0000              add [eax],al
00002D1E  0000              add [eax],al
00002D20  0000              add [eax],al
00002D22  0000              add [eax],al
00002D24  0000              add [eax],al
00002D26  0000              add [eax],al
00002D28  0000              add [eax],al
00002D2A  0000              add [eax],al
00002D2C  0000              add [eax],al
00002D2E  0000              add [eax],al
00002D30  0000              add [eax],al
00002D32  0000              add [eax],al
00002D34  0000              add [eax],al
00002D36  0000              add [eax],al
00002D38  0000              add [eax],al
00002D3A  0000              add [eax],al
00002D3C  0000              add [eax],al
00002D3E  0000              add [eax],al
00002D40  0000              add [eax],al
00002D42  0000              add [eax],al
00002D44  0000              add [eax],al
00002D46  0000              add [eax],al
00002D48  0000              add [eax],al
00002D4A  0000              add [eax],al
00002D4C  0000              add [eax],al
00002D4E  0000              add [eax],al
00002D50  0000              add [eax],al
00002D52  0000              add [eax],al
00002D54  0000              add [eax],al
00002D56  0000              add [eax],al
00002D58  0000              add [eax],al
00002D5A  0000              add [eax],al
00002D5C  0000              add [eax],al
00002D5E  0000              add [eax],al
00002D60  0000              add [eax],al
00002D62  0000              add [eax],al
00002D64  0000              add [eax],al
00002D66  0000              add [eax],al
00002D68  0000              add [eax],al
00002D6A  0000              add [eax],al
00002D6C  0000              add [eax],al
00002D6E  0000              add [eax],al
00002D70  0000              add [eax],al
00002D72  0000              add [eax],al
00002D74  0000              add [eax],al
00002D76  0000              add [eax],al
00002D78  0000              add [eax],al
00002D7A  0000              add [eax],al
00002D7C  0000              add [eax],al
00002D7E  0000              add [eax],al
00002D80  0000              add [eax],al
00002D82  0000              add [eax],al
00002D84  0000              add [eax],al
00002D86  0000              add [eax],al
00002D88  0000              add [eax],al
00002D8A  0000              add [eax],al
00002D8C  0000              add [eax],al
00002D8E  0000              add [eax],al
00002D90  0000              add [eax],al
00002D92  0000              add [eax],al
00002D94  0000              add [eax],al
00002D96  0000              add [eax],al
00002D98  0000              add [eax],al
00002D9A  0000              add [eax],al
00002D9C  0000              add [eax],al
00002D9E  0000              add [eax],al
00002DA0  0000              add [eax],al
00002DA2  0000              add [eax],al
00002DA4  0000              add [eax],al
00002DA6  0000              add [eax],al
00002DA8  0000              add [eax],al
00002DAA  0000              add [eax],al
00002DAC  0000              add [eax],al
00002DAE  0000              add [eax],al
00002DB0  0000              add [eax],al
00002DB2  0000              add [eax],al
00002DB4  0000              add [eax],al
00002DB6  0000              add [eax],al
00002DB8  0000              add [eax],al
00002DBA  0000              add [eax],al
00002DBC  0000              add [eax],al
00002DBE  0000              add [eax],al
00002DC0  0000              add [eax],al
00002DC2  0000              add [eax],al
00002DC4  0000              add [eax],al
00002DC6  0000              add [eax],al
00002DC8  0000              add [eax],al
00002DCA  0000              add [eax],al
00002DCC  0000              add [eax],al
00002DCE  0000              add [eax],al
00002DD0  0000              add [eax],al
00002DD2  0000              add [eax],al
00002DD4  0000              add [eax],al
00002DD6  0000              add [eax],al
00002DD8  0000              add [eax],al
00002DDA  0000              add [eax],al
00002DDC  0000              add [eax],al
00002DDE  0000              add [eax],al
00002DE0  0000              add [eax],al
00002DE2  0000              add [eax],al
00002DE4  0000              add [eax],al
00002DE6  0000              add [eax],al
00002DE8  0000              add [eax],al
00002DEA  0000              add [eax],al
00002DEC  0000              add [eax],al
00002DEE  0000              add [eax],al
00002DF0  0000              add [eax],al
00002DF2  0000              add [eax],al
00002DF4  0000              add [eax],al
00002DF6  0000              add [eax],al
00002DF8  0000              add [eax],al
00002DFA  0000              add [eax],al
00002DFC  0000              add [eax],al
00002DFE  0000              add [eax],al
00002E00  0000              add [eax],al
00002E02  0000              add [eax],al
00002E04  0000              add [eax],al
00002E06  0000              add [eax],al
00002E08  0000              add [eax],al
00002E0A  0000              add [eax],al
00002E0C  0000              add [eax],al
00002E0E  0000              add [eax],al
00002E10  0000              add [eax],al
00002E12  0000              add [eax],al
00002E14  0000              add [eax],al
00002E16  0000              add [eax],al
00002E18  0000              add [eax],al
00002E1A  0000              add [eax],al
00002E1C  0000              add [eax],al
00002E1E  0000              add [eax],al
00002E20  0000              add [eax],al
00002E22  0000              add [eax],al
00002E24  0000              add [eax],al
00002E26  0000              add [eax],al
00002E28  0000              add [eax],al
00002E2A  0000              add [eax],al
00002E2C  0000              add [eax],al
00002E2E  0000              add [eax],al
00002E30  0000              add [eax],al
00002E32  0000              add [eax],al
00002E34  0000              add [eax],al
00002E36  0000              add [eax],al
00002E38  0000              add [eax],al
00002E3A  0000              add [eax],al
00002E3C  0000              add [eax],al
00002E3E  0000              add [eax],al
00002E40  0000              add [eax],al
00002E42  0000              add [eax],al
00002E44  0000              add [eax],al
00002E46  0000              add [eax],al
00002E48  0000              add [eax],al
00002E4A  0000              add [eax],al
00002E4C  0000              add [eax],al
00002E4E  0000              add [eax],al
00002E50  0000              add [eax],al
00002E52  0000              add [eax],al
00002E54  0000              add [eax],al
00002E56  0000              add [eax],al
00002E58  0000              add [eax],al
00002E5A  0000              add [eax],al
00002E5C  0000              add [eax],al
00002E5E  0000              add [eax],al
00002E60  0000              add [eax],al
00002E62  0000              add [eax],al
00002E64  0000              add [eax],al
00002E66  0000              add [eax],al
00002E68  0000              add [eax],al
00002E6A  0000              add [eax],al
00002E6C  0000              add [eax],al
00002E6E  0000              add [eax],al
00002E70  0000              add [eax],al
00002E72  0000              add [eax],al
00002E74  0000              add [eax],al
00002E76  0000              add [eax],al
00002E78  0000              add [eax],al
00002E7A  0000              add [eax],al
00002E7C  0000              add [eax],al
00002E7E  0000              add [eax],al
00002E80  0000              add [eax],al
00002E82  0000              add [eax],al
00002E84  0000              add [eax],al
00002E86  0000              add [eax],al
00002E88  0000              add [eax],al
00002E8A  0000              add [eax],al
00002E8C  0000              add [eax],al
00002E8E  0000              add [eax],al
00002E90  0000              add [eax],al
00002E92  0000              add [eax],al
00002E94  0000              add [eax],al
00002E96  0000              add [eax],al
00002E98  0000              add [eax],al
00002E9A  0000              add [eax],al
00002E9C  0000              add [eax],al
00002E9E  0000              add [eax],al
00002EA0  0000              add [eax],al
00002EA2  0000              add [eax],al
00002EA4  0000              add [eax],al
00002EA6  0000              add [eax],al
00002EA8  0000              add [eax],al
00002EAA  0000              add [eax],al
00002EAC  0000              add [eax],al
00002EAE  0000              add [eax],al
00002EB0  0000              add [eax],al
00002EB2  0000              add [eax],al
00002EB4  0000              add [eax],al
00002EB6  0000              add [eax],al
00002EB8  0000              add [eax],al
00002EBA  0000              add [eax],al
00002EBC  0000              add [eax],al
00002EBE  0000              add [eax],al
00002EC0  0000              add [eax],al
00002EC2  0000              add [eax],al
00002EC4  0000              add [eax],al
00002EC6  0000              add [eax],al
00002EC8  0000              add [eax],al
00002ECA  0000              add [eax],al
00002ECC  0000              add [eax],al
00002ECE  0000              add [eax],al
00002ED0  0000              add [eax],al
00002ED2  0000              add [eax],al
00002ED4  0000              add [eax],al
00002ED6  0000              add [eax],al
00002ED8  0000              add [eax],al
00002EDA  0000              add [eax],al
00002EDC  0000              add [eax],al
00002EDE  0000              add [eax],al
00002EE0  0000              add [eax],al
00002EE2  0000              add [eax],al
00002EE4  0000              add [eax],al
00002EE6  0000              add [eax],al
00002EE8  0000              add [eax],al
00002EEA  0000              add [eax],al
00002EEC  0000              add [eax],al
00002EEE  0000              add [eax],al
00002EF0  0000              add [eax],al
00002EF2  0000              add [eax],al
00002EF4  0000              add [eax],al
00002EF6  0000              add [eax],al
00002EF8  0000              add [eax],al
00002EFA  0000              add [eax],al
00002EFC  0000              add [eax],al
00002EFE  0000              add [eax],al
00002F00  0000              add [eax],al
00002F02  0000              add [eax],al
00002F04  0000              add [eax],al
00002F06  0000              add [eax],al
00002F08  0000              add [eax],al
00002F0A  0000              add [eax],al
00002F0C  0000              add [eax],al
00002F0E  0000              add [eax],al
00002F10  0000              add [eax],al
00002F12  0000              add [eax],al
00002F14  0000              add [eax],al
00002F16  0000              add [eax],al
00002F18  0000              add [eax],al
00002F1A  0000              add [eax],al
00002F1C  0000              add [eax],al
00002F1E  0000              add [eax],al
00002F20  0000              add [eax],al
00002F22  0000              add [eax],al
00002F24  0000              add [eax],al
00002F26  0000              add [eax],al
00002F28  0000              add [eax],al
00002F2A  0000              add [eax],al
00002F2C  0000              add [eax],al
00002F2E  0000              add [eax],al
00002F30  0000              add [eax],al
00002F32  0000              add [eax],al
00002F34  0000              add [eax],al
00002F36  0000              add [eax],al
00002F38  0000              add [eax],al
00002F3A  0000              add [eax],al
00002F3C  0000              add [eax],al
00002F3E  0000              add [eax],al
00002F40  0000              add [eax],al
00002F42  0000              add [eax],al
00002F44  0000              add [eax],al
00002F46  0000              add [eax],al
00002F48  0000              add [eax],al
00002F4A  0000              add [eax],al
00002F4C  0000              add [eax],al
00002F4E  0000              add [eax],al
00002F50  0000              add [eax],al
00002F52  0000              add [eax],al
00002F54  0000              add [eax],al
00002F56  0000              add [eax],al
00002F58  0000              add [eax],al
00002F5A  0000              add [eax],al
00002F5C  0000              add [eax],al
00002F5E  0000              add [eax],al
00002F60  0000              add [eax],al
00002F62  0000              add [eax],al
00002F64  0000              add [eax],al
00002F66  0000              add [eax],al
00002F68  0000              add [eax],al
00002F6A  0000              add [eax],al
00002F6C  0000              add [eax],al
00002F6E  0000              add [eax],al
00002F70  0000              add [eax],al
00002F72  0000              add [eax],al
00002F74  0000              add [eax],al
00002F76  0000              add [eax],al
00002F78  0000              add [eax],al
00002F7A  0000              add [eax],al
00002F7C  0000              add [eax],al
00002F7E  0000              add [eax],al
00002F80  0000              add [eax],al
00002F82  0000              add [eax],al
00002F84  0000              add [eax],al
00002F86  0000              add [eax],al
00002F88  0000              add [eax],al
00002F8A  0000              add [eax],al
00002F8C  0000              add [eax],al
00002F8E  0000              add [eax],al
00002F90  0000              add [eax],al
00002F92  0000              add [eax],al
00002F94  0000              add [eax],al
00002F96  0000              add [eax],al
00002F98  0000              add [eax],al
00002F9A  0000              add [eax],al
00002F9C  0000              add [eax],al
00002F9E  0000              add [eax],al
00002FA0  0000              add [eax],al
00002FA2  0000              add [eax],al
00002FA4  0000              add [eax],al
00002FA6  0000              add [eax],al
00002FA8  0000              add [eax],al
00002FAA  0000              add [eax],al
00002FAC  0000              add [eax],al
00002FAE  0000              add [eax],al
00002FB0  0000              add [eax],al
00002FB2  0000              add [eax],al
00002FB4  0000              add [eax],al
00002FB6  0000              add [eax],al
00002FB8  0000              add [eax],al
00002FBA  0000              add [eax],al
00002FBC  0000              add [eax],al
00002FBE  0000              add [eax],al
00002FC0  0000              add [eax],al
00002FC2  0000              add [eax],al
00002FC4  0000              add [eax],al
00002FC6  0000              add [eax],al
00002FC8  0000              add [eax],al
00002FCA  0000              add [eax],al
00002FCC  0000              add [eax],al
00002FCE  0000              add [eax],al
00002FD0  0000              add [eax],al
00002FD2  0000              add [eax],al
00002FD4  0000              add [eax],al
00002FD6  0000              add [eax],al
00002FD8  0000              add [eax],al
00002FDA  0000              add [eax],al
00002FDC  0000              add [eax],al
00002FDE  0000              add [eax],al
00002FE0  0000              add [eax],al
00002FE2  0000              add [eax],al
00002FE4  0000              add [eax],al
00002FE6  0000              add [eax],al
00002FE8  0000              add [eax],al
00002FEA  0000              add [eax],al
00002FEC  0000              add [eax],al
00002FEE  0000              add [eax],al
00002FF0  0000              add [eax],al
00002FF2  0000              add [eax],al
00002FF4  0000              add [eax],al
00002FF6  0000              add [eax],al
00002FF8  0000              add [eax],al
00002FFA  0000              add [eax],al
00002FFC  0000              add [eax],al
00002FFE  0000              add [eax],al
00003000  D1                db 0xd1
00003001  3100              xor [eax],eax
00003003  00E2              add dl,ah
00003005  3100              xor [eax],eax
00003007  00E8              add al,ch
00003009  3100              xor [eax],eax
0000300B  00FF              add bh,bh
0000300D  3100              xor [eax],eax
0000300F  000A              add [edx],cl
00003011  3200              xor al,[eax]
00003013  0021              add [ecx],ah
00003015  3200              xor al,[eax]
00003017  002F              add [edi],ch
00003019  3200              xor al,[eax]
0000301B  003E              add [esi],bh
0000301D  3200              xor al,[eax]
0000301F  004D32            add [ebp+0x32],cl
00003022  0000              add [eax],al
00003024  5A                pop edx
00003025  3200              xor al,[eax]
00003027  007632            add [esi+0x32],dh
0000302A  0000              add [eax],al
0000302C  7E32              jng 0x3060
0000302E  0000              add [eax],al
00003030  92                xchg eax,edx
00003031  3200              xor al,[eax]
00003033  009E320000B7      add [esi-0x48ffffce],bl
00003039  3200              xor al,[eax]
0000303B  00C2              add dl,al
0000303D  3200              xor al,[eax]
0000303F  00D4              add ah,dl
00003041  3200              xor al,[eax]
00003043  00E6              add dh,ah
00003045  3200              xor al,[eax]
00003047  00F6              add dh,dh
00003049  3200              xor al,[eax]
0000304B  000433            add [ebx+esi],al
0000304E  0000              add [eax],al
00003050  0433              add al,0x33
00003052  0000              add [eax],al
00003054  0433              add al,0x33
00003056  0000              add [eax],al
00003058  0433              add al,0x33
0000305A  0000              add [eax],al
0000305C  0433              add al,0x33
0000305E  0000              add [eax],al
00003060  0433              add al,0x33
00003062  0000              add [eax],al
00003064  0433              add al,0x33
00003066  0000              add [eax],al
00003068  0433              add al,0x33
0000306A  0000              add [eax],al
0000306C  0433              add al,0x33
0000306E  0000              add [eax],al
00003070  0433              add al,0x33
00003072  0000              add [eax],al
00003074  0433              add al,0x33
00003076  0000              add [eax],al
00003078  0433              add al,0x33
0000307A  0000              add [eax],al
0000307C  0433              add al,0x33
0000307E  0000              add [eax],al
