00000000  E808000000        call 0xd
00000005  EBFE              jmp short 0x5
00000007  55                push ebp
00000008  89E5              mov ebp,esp
0000000A  90                nop
0000000B  5D                pop ebp
0000000C  C3                ret
0000000D  8D4C2404          lea ecx,[esp+0x4]
00000011  83E4F0            and esp,byte -0x10
00000014  FF71FC            push dword [ecx-0x4]
00000017  55                push ebp
00000018  89E5              mov ebp,esp
0000001A  51                push ecx
0000001B  83EC04            sub esp,byte +0x4
0000001E  C705843000005000  mov dword [dword 0x3084],0x50
         -0000
00000028  C705883000001900  mov dword [dword 0x3088],0x19
         -0000
00000032  C7058C3000000000  mov dword [dword 0x308c],0x0
         -0000
0000003C  C705903000000000  mov dword [dword 0x3090],0x0
         -0000
00000046  83EC0C            sub esp,byte +0xc
00000049  6884300000        push dword 0x3084
0000004E  E834020000        call 0x287
00000053  83C410            add esp,byte +0x10
00000056  83EC08            sub esp,byte +0x8
00000059  686C230000        push dword 0x236c
0000005E  6884300000        push dword 0x3084
00000063  E837020000        call 0x29f
00000068  83C410            add esp,byte +0x10
0000006B  E86C020000        call 0x2dc
00000070  FB                sti
00000071  E8080C0000        call 0xc7e
00000076  90                nop
00000077  8B4DFC            mov ecx,[ebp-0x4]
0000007A  C9                leave
0000007B  8D61FC            lea esp,[ecx-0x4]
0000007E  C3                ret
0000007F  55                push ebp
00000080  89E5              mov ebp,esp
00000082  83EC18            sub esp,byte +0x18
00000085  8B550C            mov edx,[ebp+0xc]
00000088  8B4510            mov eax,[ebp+0x10]
0000008B  8855EC            mov [ebp-0x14],dl
0000008E  8845E8            mov [ebp-0x18],al
00000091  8B4508            mov eax,[ebp+0x8]
00000094  8B4004            mov eax,[eax+0x4]
00000097  394518            cmp [ebp+0x18],eax
0000009A  7D3F              jnl 0xdb
0000009C  837D1800          cmp dword [ebp+0x18],byte +0x0
000000A0  7839              js 0xdb
000000A2  C745FC00800B00    mov dword [ebp-0x4],0xb8000
000000A9  8B4508            mov eax,[ebp+0x8]
000000AC  8B00              mov eax,[eax]
000000AE  0FAF4518          imul eax,[ebp+0x18]
000000B2  89C2              mov edx,eax
000000B4  8B4514            mov eax,[ebp+0x14]
000000B7  01D0              add eax,edx
000000B9  01C0              add eax,eax
000000BB  8945F8            mov [ebp-0x8],eax
000000BE  8B55F8            mov edx,[ebp-0x8]
000000C1  8B45FC            mov eax,[ebp-0x4]
000000C4  01C2              add edx,eax
000000C6  8A45EC            mov al,[ebp-0x14]
000000C9  8802              mov [edx],al
000000CB  8B45F8            mov eax,[ebp-0x8]
000000CE  8D5001            lea edx,[eax+0x1]
000000D1  8B45FC            mov eax,[ebp-0x4]
000000D4  01C2              add edx,eax
000000D6  8A45E8            mov al,[ebp-0x18]
000000D9  8802              mov [edx],al
000000DB  90                nop
000000DC  C9                leave
000000DD  C3                ret
000000DE  55                push ebp
000000DF  89E5              mov ebp,esp
000000E1  83EC14            sub esp,byte +0x14
000000E4  8B450C            mov eax,[ebp+0xc]
000000E7  8845EC            mov [ebp-0x14],al
000000EA  C645FF07          mov byte [ebp-0x1],0x7
000000EE  0FBE55FF          movsx edx,byte [ebp-0x1]
000000F2  0FBE45EC          movsx eax,byte [ebp-0x14]
000000F6  FF7514            push dword [ebp+0x14]
000000F9  FF7510            push dword [ebp+0x10]
000000FC  52                push edx
000000FD  50                push eax
000000FE  FF7508            push dword [ebp+0x8]
00000101  E879FFFFFF        call 0x7f
00000106  83C414            add esp,byte +0x14
00000109  90                nop
0000010A  C9                leave
0000010B  C3                ret
0000010C  55                push ebp
0000010D  89E5              mov ebp,esp
0000010F  83EC10            sub esp,byte +0x10
00000112  C745F400800B00    mov dword [ebp-0xc],0xb8000
00000119  C745FC00000000    mov dword [ebp-0x4],0x0
00000120  EB28              jmp short 0x14a
00000122  8B4508            mov eax,[ebp+0x8]
00000125  8B00              mov eax,[eax]
00000127  0FAF450C          imul eax,[ebp+0xc]
0000012B  01C0              add eax,eax
0000012D  89C2              mov edx,eax
0000012F  8B45FC            mov eax,[ebp-0x4]
00000132  01D0              add eax,edx
00000134  89C2              mov edx,eax
00000136  8B45F4            mov eax,[ebp-0xc]
00000139  01D0              add eax,edx
0000013B  8B4DFC            mov ecx,[ebp-0x4]
0000013E  8B55F4            mov edx,[ebp-0xc]
00000141  01CA              add edx,ecx
00000143  8A00              mov al,[eax]
00000145  8802              mov [edx],al
00000147  FF45FC            inc dword [ebp-0x4]
0000014A  8B4508            mov eax,[ebp+0x8]
0000014D  8B10              mov edx,[eax]
0000014F  8B4508            mov eax,[ebp+0x8]
00000152  8B4004            mov eax,[eax+0x4]
00000155  2B450C            sub eax,[ebp+0xc]
00000158  0FAFC2            imul eax,edx
0000015B  01C0              add eax,eax
0000015D  3945FC            cmp [ebp-0x4],eax
00000160  7CC0              jl 0x122
00000162  8B4508            mov eax,[ebp+0x8]
00000165  8B10              mov edx,[eax]
00000167  8B4508            mov eax,[ebp+0x8]
0000016A  8B4004            mov eax,[eax+0x4]
0000016D  2B450C            sub eax,[ebp+0xc]
00000170  0FAFC2            imul eax,edx
00000173  01C0              add eax,eax
00000175  8945F8            mov [ebp-0x8],eax
00000178  EB1D              jmp short 0x197
0000017A  8B45F8            mov eax,[ebp-0x8]
0000017D  85C0              test eax,eax
0000017F  7905              jns 0x186
00000181  B800000000        mov eax,0x0
00000186  8945F8            mov [ebp-0x8],eax
00000189  8B55F8            mov edx,[ebp-0x8]
0000018C  8B45F4            mov eax,[ebp-0xc]
0000018F  01D0              add eax,edx
00000191  C60000            mov byte [eax],0x0
00000194  FF45F8            inc dword [ebp-0x8]
00000197  8B4508            mov eax,[ebp+0x8]
0000019A  8B10              mov edx,[eax]
0000019C  8B4508            mov eax,[ebp+0x8]
0000019F  8B4004            mov eax,[eax+0x4]
000001A2  48                dec eax
000001A3  0FAFC2            imul eax,edx
000001A6  01C0              add eax,eax
000001A8  3945F8            cmp [ebp-0x8],eax
000001AB  7CCD              jl 0x17a
000001AD  8B4508            mov eax,[ebp+0x8]
000001B0  8B400C            mov eax,[eax+0xc]
000001B3  2B450C            sub eax,[ebp+0xc]
000001B6  89C2              mov edx,eax
000001B8  8B4508            mov eax,[ebp+0x8]
000001BB  89500C            mov [eax+0xc],edx
000001BE  8B4508            mov eax,[ebp+0x8]
000001C1  8B400C            mov eax,[eax+0xc]
000001C4  85C0              test eax,eax
000001C6  7914              jns 0x1dc
000001C8  8B4508            mov eax,[ebp+0x8]
000001CB  C7400C00000000    mov dword [eax+0xc],0x0
000001D2  8B4508            mov eax,[ebp+0x8]
000001D5  C7400800000000    mov dword [eax+0x8],0x0
000001DC  90                nop
000001DD  C9                leave
000001DE  C3                ret
000001DF  55                push ebp
000001E0  89E5              mov ebp,esp
000001E2  8B4508            mov eax,[ebp+0x8]
000001E5  C7400800000000    mov dword [eax+0x8],0x0
000001EC  8B4508            mov eax,[ebp+0x8]
000001EF  8B400C            mov eax,[eax+0xc]
000001F2  8D5001            lea edx,[eax+0x1]
000001F5  8B4508            mov eax,[ebp+0x8]
000001F8  89500C            mov [eax+0xc],edx
000001FB  8B4508            mov eax,[ebp+0x8]
000001FE  8B500C            mov edx,[eax+0xc]
00000201  8B4508            mov eax,[ebp+0x8]
00000204  8B4004            mov eax,[eax+0x4]
00000207  39C2              cmp edx,eax
00000209  750D              jnz 0x218
0000020B  6A01              push byte +0x1
0000020D  FF7508            push dword [ebp+0x8]
00000210  E8F7FEFFFF        call 0x10c
00000215  83C408            add esp,byte +0x8
00000218  90                nop
00000219  C9                leave
0000021A  C3                ret
0000021B  55                push ebp
0000021C  89E5              mov ebp,esp
0000021E  83EC04            sub esp,byte +0x4
00000221  8B450C            mov eax,[ebp+0xc]
00000224  8845FC            mov [ebp-0x4],al
00000227  807DFC0A          cmp byte [ebp-0x4],0xa
0000022B  750D              jnz 0x23a
0000022D  FF7508            push dword [ebp+0x8]
00000230  E8AAFFFFFF        call 0x1df
00000235  83C404            add esp,byte +0x4
00000238  EB4A              jmp short 0x284
0000023A  8B4508            mov eax,[ebp+0x8]
0000023D  8B480C            mov ecx,[eax+0xc]
00000240  8B4508            mov eax,[ebp+0x8]
00000243  8B5008            mov edx,[eax+0x8]
00000246  0FBE45FC          movsx eax,byte [ebp-0x4]
0000024A  51                push ecx
0000024B  52                push edx
0000024C  50                push eax
0000024D  FF7508            push dword [ebp+0x8]
00000250  E889FEFFFF        call 0xde
00000255  83C410            add esp,byte +0x10
00000258  8B4508            mov eax,[ebp+0x8]
0000025B  8B5008            mov edx,[eax+0x8]
0000025E  8B4508            mov eax,[ebp+0x8]
00000261  8B00              mov eax,[eax]
00000263  48                dec eax
00000264  39C2              cmp edx,eax
00000266  750D              jnz 0x275
00000268  FF7508            push dword [ebp+0x8]
0000026B  E86FFFFFFF        call 0x1df
00000270  83C404            add esp,byte +0x4
00000273  EB0F              jmp short 0x284
00000275  8B4508            mov eax,[ebp+0x8]
00000278  8B4008            mov eax,[eax+0x8]
0000027B  8D5001            lea edx,[eax+0x1]
0000027E  8B4508            mov eax,[ebp+0x8]
00000281  895008            mov [eax+0x8],edx
00000284  90                nop
00000285  C9                leave
00000286  C3                ret
00000287  55                push ebp
00000288  89E5              mov ebp,esp
0000028A  8B4508            mov eax,[ebp+0x8]
0000028D  8B4004            mov eax,[eax+0x4]
00000290  50                push eax
00000291  FF7508            push dword [ebp+0x8]
00000294  E873FEFFFF        call 0x10c
00000299  83C408            add esp,byte +0x8
0000029C  90                nop
0000029D  C9                leave
0000029E  C3                ret
0000029F  55                push ebp
000002A0  89E5              mov ebp,esp
000002A2  83EC10            sub esp,byte +0x10
000002A5  C745FC00000000    mov dword [ebp-0x4],0x0
000002AC  EB1C              jmp short 0x2ca
000002AE  8B55FC            mov edx,[ebp-0x4]
000002B1  8B450C            mov eax,[ebp+0xc]
000002B4  01D0              add eax,edx
000002B6  8A00              mov al,[eax]
000002B8  0FBEC0            movsx eax,al
000002BB  50                push eax
000002BC  FF7508            push dword [ebp+0x8]
000002BF  E857FFFFFF        call 0x21b
000002C4  83C408            add esp,byte +0x8
000002C7  FF45FC            inc dword [ebp-0x4]
000002CA  8B55FC            mov edx,[ebp-0x4]
000002CD  8B450C            mov eax,[ebp+0xc]
000002D0  01D0              add eax,edx
000002D2  8A00              mov al,[eax]
000002D4  84C0              test al,al
000002D6  75D6              jnz 0x2ae
000002D8  90                nop
000002D9  90                nop
000002DA  C9                leave
000002DB  C3                ret
000002DC  55                push ebp
000002DD  89E5              mov ebp,esp
000002DF  83EC08            sub esp,byte +0x8
000002E2  B8CA190000        mov eax,0x19ca
000002E7  83EC08            sub esp,byte +0x8
000002EA  50                push eax
000002EB  6A00              push byte +0x0
000002ED  E806050000        call 0x7f8
000002F2  83C410            add esp,byte +0x10
000002F5  B8D1190000        mov eax,0x19d1
000002FA  83EC08            sub esp,byte +0x8
000002FD  50                push eax
000002FE  6A01              push byte +0x1
00000300  E8F3040000        call 0x7f8
00000305  83C410            add esp,byte +0x10
00000308  B8D8190000        mov eax,0x19d8
0000030D  83EC08            sub esp,byte +0x8
00000310  50                push eax
00000311  6A02              push byte +0x2
00000313  E8E0040000        call 0x7f8
00000318  83C410            add esp,byte +0x10
0000031B  B8DF190000        mov eax,0x19df
00000320  83EC08            sub esp,byte +0x8
00000323  50                push eax
00000324  6A03              push byte +0x3
00000326  E8CD040000        call 0x7f8
0000032B  83C410            add esp,byte +0x10
0000032E  B8E6190000        mov eax,0x19e6
00000333  83EC08            sub esp,byte +0x8
00000336  50                push eax
00000337  6A04              push byte +0x4
00000339  E8BA040000        call 0x7f8
0000033E  83C410            add esp,byte +0x10
00000341  B8F4190000        mov eax,0x19f4
00000346  83EC08            sub esp,byte +0x8
00000349  50                push eax
0000034A  6A06              push byte +0x6
0000034C  E8A7040000        call 0x7f8
00000351  83C410            add esp,byte +0x10
00000354  B8FB190000        mov eax,0x19fb
00000359  83EC08            sub esp,byte +0x8
0000035C  50                push eax
0000035D  6A07              push byte +0x7
0000035F  E894040000        call 0x7f8
00000364  83C410            add esp,byte +0x10
00000367  B8051A0000        mov eax,0x1a05
0000036C  83EC08            sub esp,byte +0x8
0000036F  50                push eax
00000370  6A08              push byte +0x8
00000372  E881040000        call 0x7f8
00000377  83C410            add esp,byte +0x10
0000037A  B80D1A0000        mov eax,0x1a0d
0000037F  83EC08            sub esp,byte +0x8
00000382  50                push eax
00000383  6A09              push byte +0x9
00000385  E86E040000        call 0x7f8
0000038A  83C410            add esp,byte +0x10
0000038D  B8171A0000        mov eax,0x1a17
00000392  83EC08            sub esp,byte +0x8
00000395  50                push eax
00000396  6A0A              push byte +0xa
00000398  E85B040000        call 0x7f8
0000039D  83C410            add esp,byte +0x10
000003A0  B81F1A0000        mov eax,0x1a1f
000003A5  83EC08            sub esp,byte +0x8
000003A8  50                push eax
000003A9  6A0B              push byte +0xb
000003AB  E848040000        call 0x7f8
000003B0  83C410            add esp,byte +0x10
000003B3  B8271A0000        mov eax,0x1a27
000003B8  83EC08            sub esp,byte +0x8
000003BB  50                push eax
000003BC  6A0C              push byte +0xc
000003BE  E835040000        call 0x7f8
000003C3  83C410            add esp,byte +0x10
000003C6  B82F1A0000        mov eax,0x1a2f
000003CB  83EC08            sub esp,byte +0x8
000003CE  50                push eax
000003CF  6A0D              push byte +0xd
000003D1  E822040000        call 0x7f8
000003D6  83C410            add esp,byte +0x10
000003D9  B8371A0000        mov eax,0x1a37
000003DE  83EC08            sub esp,byte +0x8
000003E1  50                push eax
000003E2  6A0E              push byte +0xe
000003E4  E80F040000        call 0x7f8
000003E9  83C410            add esp,byte +0x10
000003EC  B83F1A0000        mov eax,0x1a3f
000003F1  83EC08            sub esp,byte +0x8
000003F4  50                push eax
000003F5  6A0F              push byte +0xf
000003F7  E8FC030000        call 0x7f8
000003FC  83C410            add esp,byte +0x10
000003FF  B8491A0000        mov eax,0x1a49
00000404  83EC08            sub esp,byte +0x8
00000407  50                push eax
00000408  6A10              push byte +0x10
0000040A  E8E9030000        call 0x7f8
0000040F  83C410            add esp,byte +0x10
00000412  B8531A0000        mov eax,0x1a53
00000417  83EC08            sub esp,byte +0x8
0000041A  50                push eax
0000041B  6A11              push byte +0x11
0000041D  E8D6030000        call 0x7f8
00000422  83C410            add esp,byte +0x10
00000425  B85D1A0000        mov eax,0x1a5d
0000042A  83EC08            sub esp,byte +0x8
0000042D  50                push eax
0000042E  6A12              push byte +0x12
00000430  E8C3030000        call 0x7f8
00000435  83C410            add esp,byte +0x10
00000438  B8671A0000        mov eax,0x1a67
0000043D  83EC08            sub esp,byte +0x8
00000440  50                push eax
00000441  6A13              push byte +0x13
00000443  E8B0030000        call 0x7f8
00000448  83C410            add esp,byte +0x10
0000044B  B8711A0000        mov eax,0x1a71
00000450  83EC08            sub esp,byte +0x8
00000453  50                push eax
00000454  6A14              push byte +0x14
00000456  E89D030000        call 0x7f8
0000045B  83C410            add esp,byte +0x10
0000045E  B87B1A0000        mov eax,0x1a7b
00000463  83EC08            sub esp,byte +0x8
00000466  50                push eax
00000467  6A15              push byte +0x15
00000469  E88A030000        call 0x7f8
0000046E  83C410            add esp,byte +0x10
00000471  B8851A0000        mov eax,0x1a85
00000476  83EC08            sub esp,byte +0x8
00000479  50                push eax
0000047A  6A16              push byte +0x16
0000047C  E877030000        call 0x7f8
00000481  83C410            add esp,byte +0x10
00000484  B88F1A0000        mov eax,0x1a8f
00000489  83EC08            sub esp,byte +0x8
0000048C  50                push eax
0000048D  6A17              push byte +0x17
0000048F  E864030000        call 0x7f8
00000494  83C410            add esp,byte +0x10
00000497  B8991A0000        mov eax,0x1a99
0000049C  83EC08            sub esp,byte +0x8
0000049F  50                push eax
000004A0  6A18              push byte +0x18
000004A2  E851030000        call 0x7f8
000004A7  83C410            add esp,byte +0x10
000004AA  B8A31A0000        mov eax,0x1aa3
000004AF  83EC08            sub esp,byte +0x8
000004B2  50                push eax
000004B3  6A19              push byte +0x19
000004B5  E83E030000        call 0x7f8
000004BA  83C410            add esp,byte +0x10
000004BD  B8AD1A0000        mov eax,0x1aad
000004C2  83EC08            sub esp,byte +0x8
000004C5  50                push eax
000004C6  6A1A              push byte +0x1a
000004C8  E82B030000        call 0x7f8
000004CD  83C410            add esp,byte +0x10
000004D0  B8B71A0000        mov eax,0x1ab7
000004D5  83EC08            sub esp,byte +0x8
000004D8  50                push eax
000004D9  6A1B              push byte +0x1b
000004DB  E818030000        call 0x7f8
000004E0  83C410            add esp,byte +0x10
000004E3  B8C11A0000        mov eax,0x1ac1
000004E8  83EC08            sub esp,byte +0x8
000004EB  50                push eax
000004EC  6A1C              push byte +0x1c
000004EE  E805030000        call 0x7f8
000004F3  83C410            add esp,byte +0x10
000004F6  B8CB1A0000        mov eax,0x1acb
000004FB  83EC08            sub esp,byte +0x8
000004FE  50                push eax
000004FF  6A1D              push byte +0x1d
00000501  E8F2020000        call 0x7f8
00000506  83C410            add esp,byte +0x10
00000509  B8D51A0000        mov eax,0x1ad5
0000050E  83EC08            sub esp,byte +0x8
00000511  50                push eax
00000512  6A1E              push byte +0x1e
00000514  E8DF020000        call 0x7f8
00000519  83C410            add esp,byte +0x10
0000051C  B8DF1A0000        mov eax,0x1adf
00000521  83EC08            sub esp,byte +0x8
00000524  50                push eax
00000525  6A1F              push byte +0x1f
00000527  E8CC020000        call 0x7f8
0000052C  83C410            add esp,byte +0x10
0000052F  83EC08            sub esp,byte +0x8
00000532  6A11              push byte +0x11
00000534  6A20              push byte +0x20
00000536  E869060000        call 0xba4
0000053B  83C410            add esp,byte +0x10
0000053E  83EC08            sub esp,byte +0x8
00000541  6A11              push byte +0x11
00000543  68A0000000        push dword 0xa0
00000548  E857060000        call 0xba4
0000054D  83C410            add esp,byte +0x10
00000550  83EC08            sub esp,byte +0x8
00000553  6A20              push byte +0x20
00000555  6A21              push byte +0x21
00000557  E848060000        call 0xba4
0000055C  83C410            add esp,byte +0x10
0000055F  83EC08            sub esp,byte +0x8
00000562  6A28              push byte +0x28
00000564  68A1000000        push dword 0xa1
00000569  E836060000        call 0xba4
0000056E  83C410            add esp,byte +0x10
00000571  83EC08            sub esp,byte +0x8
00000574  6A04              push byte +0x4
00000576  6A21              push byte +0x21
00000578  E827060000        call 0xba4
0000057D  83C410            add esp,byte +0x10
00000580  83EC08            sub esp,byte +0x8
00000583  6A02              push byte +0x2
00000585  68A1000000        push dword 0xa1
0000058A  E815060000        call 0xba4
0000058F  83C410            add esp,byte +0x10
00000592  83EC08            sub esp,byte +0x8
00000595  6A01              push byte +0x1
00000597  6A21              push byte +0x21
00000599  E806060000        call 0xba4
0000059E  83C410            add esp,byte +0x10
000005A1  83EC08            sub esp,byte +0x8
000005A4  6A01              push byte +0x1
000005A6  68A1000000        push dword 0xa1
000005AB  E8F4050000        call 0xba4
000005B0  83C410            add esp,byte +0x10
000005B3  83EC08            sub esp,byte +0x8
000005B6  6A00              push byte +0x0
000005B8  6A21              push byte +0x21
000005BA  E8E5050000        call 0xba4
000005BF  83C410            add esp,byte +0x10
000005C2  83EC08            sub esp,byte +0x8
000005C5  6A00              push byte +0x0
000005C7  68A1000000        push dword 0xa1
000005CC  E8D3050000        call 0xba4
000005D1  83C410            add esp,byte +0x10
000005D4  B8E91A0000        mov eax,0x1ae9
000005D9  83EC08            sub esp,byte +0x8
000005DC  50                push eax
000005DD  6A20              push byte +0x20
000005DF  E814020000        call 0x7f8
000005E4  83C410            add esp,byte +0x10
000005E7  B8F31A0000        mov eax,0x1af3
000005EC  83EC08            sub esp,byte +0x8
000005EF  50                push eax
000005F0  6A21              push byte +0x21
000005F2  E801020000        call 0x7f8
000005F7  83C410            add esp,byte +0x10
000005FA  B8FD1A0000        mov eax,0x1afd
000005FF  83EC08            sub esp,byte +0x8
00000602  50                push eax
00000603  6A22              push byte +0x22
00000605  E8EE010000        call 0x7f8
0000060A  83C410            add esp,byte +0x10
0000060D  B8071B0000        mov eax,0x1b07
00000612  83EC08            sub esp,byte +0x8
00000615  50                push eax
00000616  6A23              push byte +0x23
00000618  E8DB010000        call 0x7f8
0000061D  83C410            add esp,byte +0x10
00000620  B8111B0000        mov eax,0x1b11
00000625  83EC08            sub esp,byte +0x8
00000628  50                push eax
00000629  6A24              push byte +0x24
0000062B  E8C8010000        call 0x7f8
00000630  83C410            add esp,byte +0x10
00000633  B81B1B0000        mov eax,0x1b1b
00000638  83EC08            sub esp,byte +0x8
0000063B  50                push eax
0000063C  6A25              push byte +0x25
0000063E  E8B5010000        call 0x7f8
00000643  83C410            add esp,byte +0x10
00000646  B8251B0000        mov eax,0x1b25
0000064B  83EC08            sub esp,byte +0x8
0000064E  50                push eax
0000064F  6A26              push byte +0x26
00000651  E8A2010000        call 0x7f8
00000656  83C410            add esp,byte +0x10
00000659  B82F1B0000        mov eax,0x1b2f
0000065E  83EC08            sub esp,byte +0x8
00000661  50                push eax
00000662  6A27              push byte +0x27
00000664  E88F010000        call 0x7f8
00000669  83C410            add esp,byte +0x10
0000066C  B8391B0000        mov eax,0x1b39
00000671  83EC08            sub esp,byte +0x8
00000674  50                push eax
00000675  6A28              push byte +0x28
00000677  E87C010000        call 0x7f8
0000067C  83C410            add esp,byte +0x10
0000067F  B8431B0000        mov eax,0x1b43
00000684  83EC08            sub esp,byte +0x8
00000687  50                push eax
00000688  6A29              push byte +0x29
0000068A  E869010000        call 0x7f8
0000068F  83C410            add esp,byte +0x10
00000692  B84D1B0000        mov eax,0x1b4d
00000697  83EC08            sub esp,byte +0x8
0000069A  50                push eax
0000069B  6A2A              push byte +0x2a
0000069D  E856010000        call 0x7f8
000006A2  83C410            add esp,byte +0x10
000006A5  B8571B0000        mov eax,0x1b57
000006AA  83EC08            sub esp,byte +0x8
000006AD  50                push eax
000006AE  6A2B              push byte +0x2b
000006B0  E843010000        call 0x7f8
000006B5  83C410            add esp,byte +0x10
000006B8  B8611B0000        mov eax,0x1b61
000006BD  83EC08            sub esp,byte +0x8
000006C0  50                push eax
000006C1  6A2C              push byte +0x2c
000006C3  E830010000        call 0x7f8
000006C8  83C410            add esp,byte +0x10
000006CB  B86B1B0000        mov eax,0x1b6b
000006D0  83EC08            sub esp,byte +0x8
000006D3  50                push eax
000006D4  6A2D              push byte +0x2d
000006D6  E81D010000        call 0x7f8
000006DB  83C410            add esp,byte +0x10
000006DE  B8751B0000        mov eax,0x1b75
000006E3  83EC08            sub esp,byte +0x8
000006E6  50                push eax
000006E7  6A2E              push byte +0x2e
000006E9  E80A010000        call 0x7f8
000006EE  83C410            add esp,byte +0x10
000006F1  B87F1B0000        mov eax,0x1b7f
000006F6  83EC08            sub esp,byte +0x8
000006F9  50                push eax
000006FA  6A2F              push byte +0x2f
000006FC  E8F7000000        call 0x7f8
00000701  83C410            add esp,byte +0x10
00000704  E84D010000        call 0x856
00000709  90                nop
0000070A  C9                leave
0000070B  C3                ret
0000070C  55                push ebp
0000070D  89E5              mov ebp,esp
0000070F  83EC04            sub esp,byte +0x4
00000712  8B4508            mov eax,[ebp+0x8]
00000715  8845FC            mov [ebp-0x4],al
00000718  0FBE45FC          movsx eax,byte [ebp-0x4]
0000071C  8B550C            mov edx,[ebp+0xc]
0000071F  891485A0380000    mov [eax*4+0x38a0],edx
00000726  90                nop
00000727  C9                leave
00000728  C3                ret
00000729  55                push ebp
0000072A  89E5              mov ebp,esp
0000072C  57                push edi
0000072D  56                push esi
0000072E  53                push ebx
0000072F  83EC1C            sub esp,byte +0x1c
00000732  8B452C            mov eax,[ebp+0x2c]
00000735  83F827            cmp eax,byte +0x27
00000738  7E12              jng 0x74c
0000073A  83EC08            sub esp,byte +0x8
0000073D  6A20              push byte +0x20
0000073F  68A0000000        push dword 0xa0
00000744  E85B040000        call 0xba4
00000749  83C410            add esp,byte +0x10
0000074C  83EC08            sub esp,byte +0x8
0000074F  6A20              push byte +0x20
00000751  6A20              push byte +0x20
00000753  E84C040000        call 0xba4
00000758  83C410            add esp,byte +0x10
0000075B  8B452C            mov eax,[ebp+0x2c]
0000075E  8B0485A0380000    mov eax,[eax*4+0x38a0]
00000765  85C0              test eax,eax
00000767  742C              jz 0x795
00000769  8B452C            mov eax,[ebp+0x2c]
0000076C  8B0485A0380000    mov eax,[eax*4+0x38a0]
00000773  8945E4            mov [ebp-0x1c],eax
00000776  83EC40            sub esp,byte +0x40
00000779  89E0              mov eax,esp
0000077B  89C2              mov edx,eax
0000077D  8D5D08            lea ebx,[ebp+0x8]
00000780  B810000000        mov eax,0x10
00000785  89D7              mov edi,edx
00000787  89DE              mov esi,ebx
00000789  89C1              mov ecx,eax
0000078B  F3A5              rep movsd
0000078D  8B45E4            mov eax,[ebp-0x1c]
00000790  FFD0              call eax
00000792  83C440            add esp,byte +0x40
00000795  90                nop
00000796  8D65F4            lea esp,[ebp-0xc]
00000799  5B                pop ebx
0000079A  5E                pop esi
0000079B  5F                pop edi
0000079C  5D                pop ebp
0000079D  C3                ret
0000079E  55                push ebp
0000079F  89E5              mov ebp,esp
000007A1  83EC18            sub esp,byte +0x18
000007A4  83EC08            sub esp,byte +0x8
000007A7  68B5240000        push dword 0x24b5
000007AC  6884300000        push dword 0x3084
000007B1  E8E9FAFFFF        call 0x29f
000007B6  83C410            add esp,byte +0x10
000007B9  8B452C            mov eax,[ebp+0x2c]
000007BC  83EC08            sub esp,byte +0x8
000007BF  8D55F5            lea edx,[ebp-0xb]
000007C2  52                push edx
000007C3  50                push eax
000007C4  E80F010000        call 0x8d8
000007C9  83C410            add esp,byte +0x10
000007CC  83EC08            sub esp,byte +0x8
000007CF  8D45F5            lea eax,[ebp-0xb]
000007D2  50                push eax
000007D3  6884300000        push dword 0x3084
000007D8  E8C2FAFFFF        call 0x29f
000007DD  83C410            add esp,byte +0x10
000007E0  83EC08            sub esp,byte +0x8
000007E3  68CA240000        push dword 0x24ca
000007E8  6884300000        push dword 0x3084
000007ED  E8ADFAFFFF        call 0x29f
000007F2  83C410            add esp,byte +0x10
000007F5  90                nop
000007F6  C9                leave
000007F7  C3                ret
000007F8  55                push ebp
000007F9  89E5              mov ebp,esp
000007FB  83EC08            sub esp,byte +0x8
000007FE  83EC0C            sub esp,byte +0xc
00000801  FF750C            push dword [ebp+0xc]
00000804  E855010000        call 0x95e
00000809  83C410            add esp,byte +0x10
0000080C  8B5508            mov edx,[ebp+0x8]
0000080F  668904D5A0300000  mov [edx*8+0x30a0],ax
00000817  8B4508            mov eax,[ebp+0x8]
0000081A  66C704C5A2300000  mov word [eax*8+0x30a2],0x8
         -0800
00000824  8B4508            mov eax,[ebp+0x8]
00000827  C604C5A430000000  mov byte [eax*8+0x30a4],0x0
0000082F  8B4508            mov eax,[ebp+0x8]
00000832  C604C5A53000008E  mov byte [eax*8+0x30a5],0x8e
0000083A  83EC0C            sub esp,byte +0xc
0000083D  FF750C            push dword [ebp+0xc]
00000840  E821010000        call 0x966
00000845  83C410            add esp,byte +0x10
00000848  8B5508            mov edx,[ebp+0x8]
0000084B  668904D5A6300000  mov [edx*8+0x30a6],ax
00000853  90                nop
00000854  C9                leave
00000855  C3                ret
00000856  55                push ebp
00000857  89E5              mov ebp,esp
00000859  B8A0300000        mov eax,0x30a0
0000085E  A3A23C0000        mov [0x3ca2],eax
00000863  66C705A03C0000FF  mov word [dword 0x3ca0],0x7ff
         -07
0000086C  B8A03C0000        mov eax,0x3ca0
00000871  0F0118            lidt [eax]
00000874  90                nop
00000875  5D                pop ebp
00000876  C3                ret
00000877  55                push ebp
00000878  89E5              mov ebp,esp
0000087A  83EC10            sub esp,byte +0x10
0000087D  C745FC00000000    mov dword [ebp-0x4],0x0
00000884  EB17              jmp short 0x89d
00000886  8B55FC            mov edx,[ebp-0x4]
00000889  8B4508            mov eax,[ebp+0x8]
0000088C  01D0              add eax,edx
0000088E  8B4DFC            mov ecx,[ebp-0x4]
00000891  8B550C            mov edx,[ebp+0xc]
00000894  01CA              add edx,ecx
00000896  8A00              mov al,[eax]
00000898  8802              mov [edx],al
0000089A  FF45FC            inc dword [ebp-0x4]
0000089D  8B45FC            mov eax,[ebp-0x4]
000008A0  3B4510            cmp eax,[ebp+0x10]
000008A3  7CE1              jl 0x886
000008A5  90                nop
000008A6  90                nop
000008A7  C9                leave
000008A8  C3                ret
000008A9  55                push ebp
000008AA  89E5              mov ebp,esp
000008AC  83EC14            sub esp,byte +0x14
000008AF  8B450C            mov eax,[ebp+0xc]
000008B2  8845EC            mov [ebp-0x14],al
000008B5  8B4508            mov eax,[ebp+0x8]
000008B8  8945FC            mov [ebp-0x4],eax
000008BB  EB11              jmp short 0x8ce
000008BD  8B45FC            mov eax,[ebp-0x4]
000008C0  8D5001            lea edx,[eax+0x1]
000008C3  8955FC            mov [ebp-0x4],edx
000008C6  8A55EC            mov dl,[ebp-0x14]
000008C9  8810              mov [eax],dl
000008CB  FF4D10            dec dword [ebp+0x10]
000008CE  837D1000          cmp dword [ebp+0x10],byte +0x0
000008D2  75E9              jnz 0x8bd
000008D4  90                nop
000008D5  90                nop
000008D6  C9                leave
000008D7  C3                ret
000008D8  55                push ebp
000008D9  89E5              mov ebp,esp
000008DB  83EC10            sub esp,byte +0x10
000008DE  8B4508            mov eax,[ebp+0x8]
000008E1  8945F8            mov [ebp-0x8],eax
000008E4  837DF800          cmp dword [ebp-0x8],byte +0x0
000008E8  7903              jns 0x8ed
000008EA  F75D08            neg dword [ebp+0x8]
000008ED  C745FC00000000    mov dword [ebp-0x4],0x0
000008F4  8B4508            mov eax,[ebp+0x8]
000008F7  B90A000000        mov ecx,0xa
000008FC  99                cdq
000008FD  F7F9              idiv ecx
000008FF  89D0              mov eax,edx
00000901  8D4830            lea ecx,[eax+0x30]
00000904  8B45FC            mov eax,[ebp-0x4]
00000907  8D5001            lea edx,[eax+0x1]
0000090A  8955FC            mov [ebp-0x4],edx
0000090D  89C2              mov edx,eax
0000090F  8B450C            mov eax,[ebp+0xc]
00000912  01D0              add eax,edx
00000914  88CA              mov dl,cl
00000916  8810              mov [eax],dl
00000918  8B4D08            mov ecx,[ebp+0x8]
0000091B  B867666666        mov eax,0x66666667
00000920  F7E9              imul ecx
00000922  C1FA02            sar edx,byte 0x2
00000925  89C8              mov eax,ecx
00000927  C1F81F            sar eax,byte 0x1f
0000092A  29C2              sub edx,eax
0000092C  89D0              mov eax,edx
0000092E  894508            mov [ebp+0x8],eax
00000931  837D0800          cmp dword [ebp+0x8],byte +0x0
00000935  7FBD              jg 0x8f4
00000937  837DF800          cmp dword [ebp-0x8],byte +0x0
0000093B  7913              jns 0x950
0000093D  8B45FC            mov eax,[ebp-0x4]
00000940  8D5001            lea edx,[eax+0x1]
00000943  8955FC            mov [ebp-0x4],edx
00000946  89C2              mov edx,eax
00000948  8B450C            mov eax,[ebp+0xc]
0000094B  01D0              add eax,edx
0000094D  C6002D            mov byte [eax],0x2d
00000950  8B55FC            mov edx,[ebp-0x4]
00000953  8B450C            mov eax,[ebp+0xc]
00000956  01D0              add eax,edx
00000958  C60000            mov byte [eax],0x0
0000095B  90                nop
0000095C  C9                leave
0000095D  C3                ret
0000095E  55                push ebp
0000095F  89E5              mov ebp,esp
00000961  8B4508            mov eax,[ebp+0x8]
00000964  5D                pop ebp
00000965  C3                ret
00000966  55                push ebp
00000967  89E5              mov ebp,esp
00000969  8B4508            mov eax,[ebp+0x8]
0000096C  C1F810            sar eax,byte 0x10
0000096F  5D                pop ebp
00000970  C3                ret
00000971  6690              xchg ax,ax
00000973  6690              xchg ax,ax
00000975  6690              xchg ax,ax
00000977  6690              xchg ax,ax
00000979  6690              xchg ax,ax
0000097B  6690              xchg ax,ax
0000097D  6690              xchg ax,ax
0000097F  90                nop
00000980  60                pusha
00000981  668CD8            mov ax,ds
00000984  50                push eax
00000985  66B81000          mov ax,0x10
00000989  8ED8              mov ds,eax
0000098B  8EC0              mov es,eax
0000098D  8EE0              mov fs,eax
0000098F  8EE8              mov gs,eax
00000991  E808FEFFFF        call 0x79e
00000996  58                pop eax
00000997  8ED8              mov ds,eax
00000999  8EC0              mov es,eax
0000099B  8EE0              mov fs,eax
0000099D  8EE8              mov gs,eax
0000099F  61                popa
000009A0  83C408            add esp,byte +0x8
000009A3  FB                sti
000009A4  CF                iret
000009A5  60                pusha
000009A6  668CD8            mov ax,ds
000009A9  50                push eax
000009AA  66B81000          mov ax,0x10
000009AE  8ED8              mov ds,eax
000009B0  8EC0              mov es,eax
000009B2  8EE0              mov fs,eax
000009B4  8EE8              mov gs,eax
000009B6  E86EFDFFFF        call 0x729
000009BB  5B                pop ebx
000009BC  8EDB              mov ds,ebx
000009BE  8EC3              mov es,ebx
000009C0  8EE3              mov fs,ebx
000009C2  8EEB              mov gs,ebx
000009C4  61                popa
000009C5  83C408            add esp,byte +0x8
000009C8  FB                sti
000009C9  CF                iret
000009CA  FA                cli
000009CB  6A00              push byte +0x0
000009CD  6A00              push byte +0x0
000009CF  EBAF              jmp short 0x980
000009D1  FA                cli
000009D2  6A00              push byte +0x0
000009D4  6A01              push byte +0x1
000009D6  EBA8              jmp short 0x980
000009D8  FA                cli
000009D9  6A00              push byte +0x0
000009DB  6A02              push byte +0x2
000009DD  EBA1              jmp short 0x980
000009DF  FA                cli
000009E0  6A00              push byte +0x0
000009E2  6A03              push byte +0x3
000009E4  EB9A              jmp short 0x980
000009E6  FA                cli
000009E7  6A00              push byte +0x0
000009E9  6A04              push byte +0x4
000009EB  EB93              jmp short 0x980
000009ED  FA                cli
000009EE  6A00              push byte +0x0
000009F0  6A05              push byte +0x5
000009F2  EB8C              jmp short 0x980
000009F4  FA                cli
000009F5  6A00              push byte +0x0
000009F7  6A06              push byte +0x6
000009F9  EB85              jmp short 0x980
000009FB  FA                cli
000009FC  6A00              push byte +0x0
000009FE  6A07              push byte +0x7
00000A00  E97BFFFFFF        jmp 0x980
00000A05  FA                cli
00000A06  6A08              push byte +0x8
00000A08  E973FFFFFF        jmp 0x980
00000A0D  FA                cli
00000A0E  6A00              push byte +0x0
00000A10  6A09              push byte +0x9
00000A12  E969FFFFFF        jmp 0x980
00000A17  FA                cli
00000A18  6A0A              push byte +0xa
00000A1A  E961FFFFFF        jmp 0x980
00000A1F  FA                cli
00000A20  6A0B              push byte +0xb
00000A22  E959FFFFFF        jmp 0x980
00000A27  FA                cli
00000A28  6A0C              push byte +0xc
00000A2A  E951FFFFFF        jmp 0x980
00000A2F  FA                cli
00000A30  6A0D              push byte +0xd
00000A32  E949FFFFFF        jmp 0x980
00000A37  FA                cli
00000A38  6A0E              push byte +0xe
00000A3A  E941FFFFFF        jmp 0x980
00000A3F  FA                cli
00000A40  6A00              push byte +0x0
00000A42  6A0F              push byte +0xf
00000A44  E937FFFFFF        jmp 0x980
00000A49  FA                cli
00000A4A  6A00              push byte +0x0
00000A4C  6A10              push byte +0x10
00000A4E  E92DFFFFFF        jmp 0x980
00000A53  FA                cli
00000A54  6A00              push byte +0x0
00000A56  6A11              push byte +0x11
00000A58  E923FFFFFF        jmp 0x980
00000A5D  FA                cli
00000A5E  6A00              push byte +0x0
00000A60  6A12              push byte +0x12
00000A62  E919FFFFFF        jmp 0x980
00000A67  FA                cli
00000A68  6A00              push byte +0x0
00000A6A  6A13              push byte +0x13
00000A6C  E90FFFFFFF        jmp 0x980
00000A71  FA                cli
00000A72  6A00              push byte +0x0
00000A74  6A14              push byte +0x14
00000A76  E905FFFFFF        jmp 0x980
00000A7B  FA                cli
00000A7C  6A00              push byte +0x0
00000A7E  6A15              push byte +0x15
00000A80  E9FBFEFFFF        jmp 0x980
00000A85  FA                cli
00000A86  6A00              push byte +0x0
00000A88  6A16              push byte +0x16
00000A8A  E9F1FEFFFF        jmp 0x980
00000A8F  FA                cli
00000A90  6A00              push byte +0x0
00000A92  6A17              push byte +0x17
00000A94  E9E7FEFFFF        jmp 0x980
00000A99  FA                cli
00000A9A  6A00              push byte +0x0
00000A9C  6A18              push byte +0x18
00000A9E  E9DDFEFFFF        jmp 0x980
00000AA3  FA                cli
00000AA4  6A00              push byte +0x0
00000AA6  6A19              push byte +0x19
00000AA8  E9D3FEFFFF        jmp 0x980
00000AAD  FA                cli
00000AAE  6A00              push byte +0x0
00000AB0  6A1A              push byte +0x1a
00000AB2  E9C9FEFFFF        jmp 0x980
00000AB7  FA                cli
00000AB8  6A00              push byte +0x0
00000ABA  6A1B              push byte +0x1b
00000ABC  E9BFFEFFFF        jmp 0x980
00000AC1  FA                cli
00000AC2  6A00              push byte +0x0
00000AC4  6A1C              push byte +0x1c
00000AC6  E9B5FEFFFF        jmp 0x980
00000ACB  FA                cli
00000ACC  6A00              push byte +0x0
00000ACE  6A1D              push byte +0x1d
00000AD0  E9ABFEFFFF        jmp 0x980
00000AD5  FA                cli
00000AD6  6A00              push byte +0x0
00000AD8  6A1E              push byte +0x1e
00000ADA  E9A1FEFFFF        jmp 0x980
00000ADF  FA                cli
00000AE0  6A00              push byte +0x0
00000AE2  6A1F              push byte +0x1f
00000AE4  E997FEFFFF        jmp 0x980
00000AE9  FA                cli
00000AEA  6A00              push byte +0x0
00000AEC  6A20              push byte +0x20
00000AEE  E9B2FEFFFF        jmp 0x9a5
00000AF3  FA                cli
00000AF4  6A01              push byte +0x1
00000AF6  6A21              push byte +0x21
00000AF8  E9A8FEFFFF        jmp 0x9a5
00000AFD  FA                cli
00000AFE  6A02              push byte +0x2
00000B00  6A22              push byte +0x22
00000B02  E99EFEFFFF        jmp 0x9a5
00000B07  FA                cli
00000B08  6A03              push byte +0x3
00000B0A  6A23              push byte +0x23
00000B0C  E994FEFFFF        jmp 0x9a5
00000B11  FA                cli
00000B12  6A04              push byte +0x4
00000B14  6A24              push byte +0x24
00000B16  E98AFEFFFF        jmp 0x9a5
00000B1B  FA                cli
00000B1C  6A05              push byte +0x5
00000B1E  6A25              push byte +0x25
00000B20  E980FEFFFF        jmp 0x9a5
00000B25  FA                cli
00000B26  6A06              push byte +0x6
00000B28  6A26              push byte +0x26
00000B2A  E976FEFFFF        jmp 0x9a5
00000B2F  FA                cli
00000B30  6A07              push byte +0x7
00000B32  6A27              push byte +0x27
00000B34  E96CFEFFFF        jmp 0x9a5
00000B39  FA                cli
00000B3A  6A08              push byte +0x8
00000B3C  6A28              push byte +0x28
00000B3E  E962FEFFFF        jmp 0x9a5
00000B43  FA                cli
00000B44  6A09              push byte +0x9
00000B46  6A29              push byte +0x29
00000B48  E958FEFFFF        jmp 0x9a5
00000B4D  FA                cli
00000B4E  6A0A              push byte +0xa
00000B50  6A2A              push byte +0x2a
00000B52  E94EFEFFFF        jmp 0x9a5
00000B57  FA                cli
00000B58  6A0B              push byte +0xb
00000B5A  6A2B              push byte +0x2b
00000B5C  E944FEFFFF        jmp 0x9a5
00000B61  FA                cli
00000B62  6A0C              push byte +0xc
00000B64  6A2C              push byte +0x2c
00000B66  E93AFEFFFF        jmp 0x9a5
00000B6B  FA                cli
00000B6C  6A0D              push byte +0xd
00000B6E  6A2D              push byte +0x2d
00000B70  E930FEFFFF        jmp 0x9a5
00000B75  FA                cli
00000B76  6A0E              push byte +0xe
00000B78  6A2E              push byte +0x2e
00000B7A  E926FEFFFF        jmp 0x9a5
00000B7F  FA                cli
00000B80  6A0F              push byte +0xf
00000B82  6A2F              push byte +0x2f
00000B84  E91CFEFFFF        jmp 0x9a5
00000B89  55                push ebp
00000B8A  89E5              mov ebp,esp
00000B8C  83EC14            sub esp,byte +0x14
00000B8F  8B4508            mov eax,[ebp+0x8]
00000B92  668945EC          mov [ebp-0x14],ax
00000B96  8B45EC            mov eax,[ebp-0x14]
00000B99  89C2              mov edx,eax
00000B9B  EC                in al,dx
00000B9C  8845FF            mov [ebp-0x1],al
00000B9F  8A45FF            mov al,[ebp-0x1]
00000BA2  C9                leave
00000BA3  C3                ret
00000BA4  55                push ebp
00000BA5  89E5              mov ebp,esp
00000BA7  83EC08            sub esp,byte +0x8
00000BAA  8B4508            mov eax,[ebp+0x8]
00000BAD  8B550C            mov edx,[ebp+0xc]
00000BB0  668945FC          mov [ebp-0x4],ax
00000BB4  88D0              mov al,dl
00000BB6  8845F8            mov [ebp-0x8],al
00000BB9  8A45F8            mov al,[ebp-0x8]
00000BBC  8B55FC            mov edx,[ebp-0x4]
00000BBF  EE                out dx,al
00000BC0  90                nop
00000BC1  C9                leave
00000BC2  C3                ret
00000BC3  55                push ebp
00000BC4  89E5              mov ebp,esp
00000BC6  83EC14            sub esp,byte +0x14
00000BC9  8B4508            mov eax,[ebp+0x8]
00000BCC  668945EC          mov [ebp-0x14],ax
00000BD0  8B45EC            mov eax,[ebp-0x14]
00000BD3  89C2              mov edx,eax
00000BD5  66ED              in ax,dx
00000BD7  668945FE          mov [ebp-0x2],ax
00000BDB  668B45FE          mov ax,[ebp-0x2]
00000BDF  C9                leave
00000BE0  C3                ret
00000BE1  55                push ebp
00000BE2  89E5              mov ebp,esp
00000BE4  83EC08            sub esp,byte +0x8
00000BE7  8B5508            mov edx,[ebp+0x8]
00000BEA  8B450C            mov eax,[ebp+0xc]
00000BED  668955FC          mov [ebp-0x4],dx
00000BF1  668945F8          mov [ebp-0x8],ax
00000BF5  8B45F8            mov eax,[ebp-0x8]
00000BF8  8B55FC            mov edx,[ebp-0x4]
00000BFB  66EF              out dx,ax
00000BFD  90                nop
00000BFE  C9                leave
00000BFF  C3                ret
00000C00  55                push ebp
00000C01  89E5              mov ebp,esp
00000C03  83EC18            sub esp,byte +0x18
00000C06  83EC0C            sub esp,byte +0xc
00000C09  6A60              push byte +0x60
00000C0B  E879FFFFFF        call 0xb89
00000C10  83C410            add esp,byte +0x10
00000C13  8845F7            mov [ebp-0x9],al
00000C16  0FBE45F7          movsx eax,byte [ebp-0x9]
00000C1A  83EC08            sub esp,byte +0x8
00000C1D  FF75F0            push dword [ebp-0x10]
00000C20  50                push eax
00000C21  E8B2FCFFFF        call 0x8d8
00000C26  83C410            add esp,byte +0x10
00000C29  C745ECCC240000    mov dword [ebp-0x14],0x24cc
00000C30  83EC08            sub esp,byte +0x8
00000C33  FF75EC            push dword [ebp-0x14]
00000C36  6884300000        push dword 0x3084
00000C3B  E85FF6FFFF        call 0x29f
00000C40  83C410            add esp,byte +0x10
00000C43  83EC08            sub esp,byte +0x8
00000C46  FF75F0            push dword [ebp-0x10]
00000C49  6884300000        push dword 0x3084
00000C4E  E84CF6FFFF        call 0x29f
00000C53  83C410            add esp,byte +0x10
00000C56  83EC08            sub esp,byte +0x8
00000C59  68E1240000        push dword 0x24e1
00000C5E  6884300000        push dword 0x3084
00000C63  E837F6FFFF        call 0x29f
00000C68  83C410            add esp,byte +0x10
00000C6B  83EC0C            sub esp,byte +0xc
00000C6E  6884300000        push dword 0x3084
00000C73  E867F5FFFF        call 0x1df
00000C78  83C410            add esp,byte +0x10
00000C7B  90                nop
00000C7C  C9                leave
00000C7D  C3                ret
00000C7E  55                push ebp
00000C7F  89E5              mov ebp,esp
00000C81  83EC08            sub esp,byte +0x8
00000C84  83EC08            sub esp,byte +0x8
00000C87  68001C0000        push dword 0x1c00
00000C8C  6A21              push byte +0x21
00000C8E  E879FAFFFF        call 0x70c
00000C93  83C410            add esp,byte +0x10
00000C96  90                nop
00000C97  C9                leave
00000C98  C3                ret
00000C99  55                push ebp
00000C9A  89E5              mov ebp,esp
00000C9C  83EC18            sub esp,byte +0x18
00000C9F  8B4508            mov eax,[ebp+0x8]
00000CA2  8845F4            mov [ebp-0xc],al
00000CA5  0FBE45F4          movsx eax,byte [ebp-0xc]
00000CA9  83F839            cmp eax,byte +0x39
00000CAC  0F87DB050000      ja near 0x128d
00000CB2  8B048588250000    mov eax,[eax*4+0x2588]
00000CB9  FFE0              jmp eax
00000CBB  83EC08            sub esp,byte +0x8
00000CBE  68E4240000        push dword 0x24e4
00000CC3  6884300000        push dword 0x3084
00000CC8  E8D2F5FFFF        call 0x29f
00000CCD  83C410            add esp,byte +0x10
00000CD0  E9B9050000        jmp 0x128e
00000CD5  83EC08            sub esp,byte +0x8
00000CD8  68EA240000        push dword 0x24ea
00000CDD  6884300000        push dword 0x3084
00000CE2  E8B8F5FFFF        call 0x29f
00000CE7  83C410            add esp,byte +0x10
00000CEA  E99F050000        jmp 0x128e
00000CEF  83EC08            sub esp,byte +0x8
00000CF2  68EE240000        push dword 0x24ee
00000CF7  6884300000        push dword 0x3084
00000CFC  E89EF5FFFF        call 0x29f
00000D01  83C410            add esp,byte +0x10
00000D04  E985050000        jmp 0x128e
00000D09  83EC08            sub esp,byte +0x8
00000D0C  68F0240000        push dword 0x24f0
00000D11  6884300000        push dword 0x3084
00000D16  E884F5FFFF        call 0x29f
00000D1B  83C410            add esp,byte +0x10
00000D1E  E96B050000        jmp 0x128e
00000D23  83EC08            sub esp,byte +0x8
00000D26  68F2240000        push dword 0x24f2
00000D2B  6884300000        push dword 0x3084
00000D30  E86AF5FFFF        call 0x29f
00000D35  83C410            add esp,byte +0x10
00000D38  E951050000        jmp 0x128e
00000D3D  83EC08            sub esp,byte +0x8
00000D40  68F4240000        push dword 0x24f4
00000D45  6884300000        push dword 0x3084
00000D4A  E850F5FFFF        call 0x29f
00000D4F  83C410            add esp,byte +0x10
00000D52  E937050000        jmp 0x128e
00000D57  83EC08            sub esp,byte +0x8
00000D5A  68F6240000        push dword 0x24f6
00000D5F  6884300000        push dword 0x3084
00000D64  E836F5FFFF        call 0x29f
00000D69  83C410            add esp,byte +0x10
00000D6C  E91D050000        jmp 0x128e
00000D71  83EC08            sub esp,byte +0x8
00000D74  68F8240000        push dword 0x24f8
00000D79  6884300000        push dword 0x3084
00000D7E  E81CF5FFFF        call 0x29f
00000D83  83C410            add esp,byte +0x10
00000D86  E903050000        jmp 0x128e
00000D8B  83EC08            sub esp,byte +0x8
00000D8E  68FA240000        push dword 0x24fa
00000D93  6884300000        push dword 0x3084
00000D98  E802F5FFFF        call 0x29f
00000D9D  83C410            add esp,byte +0x10
00000DA0  E9E9040000        jmp 0x128e
00000DA5  83EC08            sub esp,byte +0x8
00000DA8  68FC240000        push dword 0x24fc
00000DAD  6884300000        push dword 0x3084
00000DB2  E8E8F4FFFF        call 0x29f
00000DB7  83C410            add esp,byte +0x10
00000DBA  E9CF040000        jmp 0x128e
00000DBF  83EC08            sub esp,byte +0x8
00000DC2  68FE240000        push dword 0x24fe
00000DC7  6884300000        push dword 0x3084
00000DCC  E8CEF4FFFF        call 0x29f
00000DD1  83C410            add esp,byte +0x10
00000DD4  E9B5040000        jmp 0x128e
00000DD9  83EC08            sub esp,byte +0x8
00000DDC  6800250000        push dword 0x2500
00000DE1  6884300000        push dword 0x3084
00000DE6  E8B4F4FFFF        call 0x29f
00000DEB  83C410            add esp,byte +0x10
00000DEE  E99B040000        jmp 0x128e
00000DF3  83EC08            sub esp,byte +0x8
00000DF6  6802250000        push dword 0x2502
00000DFB  6884300000        push dword 0x3084
00000E00  E89AF4FFFF        call 0x29f
00000E05  83C410            add esp,byte +0x10
00000E08  E981040000        jmp 0x128e
00000E0D  83EC08            sub esp,byte +0x8
00000E10  6804250000        push dword 0x2504
00000E15  6884300000        push dword 0x3084
00000E1A  E880F4FFFF        call 0x29f
00000E1F  83C410            add esp,byte +0x10
00000E22  E967040000        jmp 0x128e
00000E27  83EC08            sub esp,byte +0x8
00000E2A  6806250000        push dword 0x2506
00000E2F  6884300000        push dword 0x3084
00000E34  E866F4FFFF        call 0x29f
00000E39  83C410            add esp,byte +0x10
00000E3C  E94D040000        jmp 0x128e
00000E41  83EC08            sub esp,byte +0x8
00000E44  6810250000        push dword 0x2510
00000E49  6884300000        push dword 0x3084
00000E4E  E84CF4FFFF        call 0x29f
00000E53  83C410            add esp,byte +0x10
00000E56  E933040000        jmp 0x128e
00000E5B  83EC08            sub esp,byte +0x8
00000E5E  6814250000        push dword 0x2514
00000E63  6884300000        push dword 0x3084
00000E68  E832F4FFFF        call 0x29f
00000E6D  83C410            add esp,byte +0x10
00000E70  E919040000        jmp 0x128e
00000E75  83EC08            sub esp,byte +0x8
00000E78  6816250000        push dword 0x2516
00000E7D  6884300000        push dword 0x3084
00000E82  E818F4FFFF        call 0x29f
00000E87  83C410            add esp,byte +0x10
00000E8A  E9FF030000        jmp 0x128e
00000E8F  83EC08            sub esp,byte +0x8
00000E92  6818250000        push dword 0x2518
00000E97  6884300000        push dword 0x3084
00000E9C  E8FEF3FFFF        call 0x29f
00000EA1  83C410            add esp,byte +0x10
00000EA4  E9E5030000        jmp 0x128e
00000EA9  83EC08            sub esp,byte +0x8
00000EAC  681A250000        push dword 0x251a
00000EB1  6884300000        push dword 0x3084
00000EB6  E8E4F3FFFF        call 0x29f
00000EBB  83C410            add esp,byte +0x10
00000EBE  E9CB030000        jmp 0x128e
00000EC3  83EC08            sub esp,byte +0x8
00000EC6  681C250000        push dword 0x251c
00000ECB  6884300000        push dword 0x3084
00000ED0  E8CAF3FFFF        call 0x29f
00000ED5  83C410            add esp,byte +0x10
00000ED8  E9B1030000        jmp 0x128e
00000EDD  83EC08            sub esp,byte +0x8
00000EE0  681E250000        push dword 0x251e
00000EE5  6884300000        push dword 0x3084
00000EEA  E8B0F3FFFF        call 0x29f
00000EEF  83C410            add esp,byte +0x10
00000EF2  E997030000        jmp 0x128e
00000EF7  83EC08            sub esp,byte +0x8
00000EFA  6820250000        push dword 0x2520
00000EFF  6884300000        push dword 0x3084
00000F04  E896F3FFFF        call 0x29f
00000F09  83C410            add esp,byte +0x10
00000F0C  E97D030000        jmp 0x128e
00000F11  83EC08            sub esp,byte +0x8
00000F14  6822250000        push dword 0x2522
00000F19  6884300000        push dword 0x3084
00000F1E  E87CF3FFFF        call 0x29f
00000F23  83C410            add esp,byte +0x10
00000F26  E963030000        jmp 0x128e
00000F2B  83EC08            sub esp,byte +0x8
00000F2E  6824250000        push dword 0x2524
00000F33  6884300000        push dword 0x3084
00000F38  E862F3FFFF        call 0x29f
00000F3D  83C410            add esp,byte +0x10
00000F40  E949030000        jmp 0x128e
00000F45  83EC08            sub esp,byte +0x8
00000F48  6826250000        push dword 0x2526
00000F4D  6884300000        push dword 0x3084
00000F52  E848F3FFFF        call 0x29f
00000F57  83C410            add esp,byte +0x10
00000F5A  E92F030000        jmp 0x128e
00000F5F  83EC08            sub esp,byte +0x8
00000F62  6828250000        push dword 0x2528
00000F67  6884300000        push dword 0x3084
00000F6C  E82EF3FFFF        call 0x29f
00000F71  83C410            add esp,byte +0x10
00000F74  E915030000        jmp 0x128e
00000F79  83EC08            sub esp,byte +0x8
00000F7C  682A250000        push dword 0x252a
00000F81  6884300000        push dword 0x3084
00000F86  E814F3FFFF        call 0x29f
00000F8B  83C410            add esp,byte +0x10
00000F8E  E9FB020000        jmp 0x128e
00000F93  83EC08            sub esp,byte +0x8
00000F96  682C250000        push dword 0x252c
00000F9B  6884300000        push dword 0x3084
00000FA0  E8FAF2FFFF        call 0x29f
00000FA5  83C410            add esp,byte +0x10
00000FA8  E9E1020000        jmp 0x128e
00000FAD  83EC08            sub esp,byte +0x8
00000FB0  6832250000        push dword 0x2532
00000FB5  6884300000        push dword 0x3084
00000FBA  E8E0F2FFFF        call 0x29f
00000FBF  83C410            add esp,byte +0x10
00000FC2  E9C7020000        jmp 0x128e
00000FC7  83EC08            sub esp,byte +0x8
00000FCA  6838250000        push dword 0x2538
00000FCF  6884300000        push dword 0x3084
00000FD4  E8C6F2FFFF        call 0x29f
00000FD9  83C410            add esp,byte +0x10
00000FDC  E9AD020000        jmp 0x128e
00000FE1  83EC08            sub esp,byte +0x8
00000FE4  683A250000        push dword 0x253a
00000FE9  6884300000        push dword 0x3084
00000FEE  E8ACF2FFFF        call 0x29f
00000FF3  83C410            add esp,byte +0x10
00000FF6  E993020000        jmp 0x128e
00000FFB  83EC08            sub esp,byte +0x8
00000FFE  683C250000        push dword 0x253c
00001003  6884300000        push dword 0x3084
00001008  E892F2FFFF        call 0x29f
0000100D  83C410            add esp,byte +0x10
00001010  E979020000        jmp 0x128e
00001015  83EC08            sub esp,byte +0x8
00001018  683E250000        push dword 0x253e
0000101D  6884300000        push dword 0x3084
00001022  E878F2FFFF        call 0x29f
00001027  83C410            add esp,byte +0x10
0000102A  E95F020000        jmp 0x128e
0000102F  83EC08            sub esp,byte +0x8
00001032  6840250000        push dword 0x2540
00001037  6884300000        push dword 0x3084
0000103C  E85EF2FFFF        call 0x29f
00001041  83C410            add esp,byte +0x10
00001044  E945020000        jmp 0x128e
00001049  83EC08            sub esp,byte +0x8
0000104C  6842250000        push dword 0x2542
00001051  6884300000        push dword 0x3084
00001056  E844F2FFFF        call 0x29f
0000105B  83C410            add esp,byte +0x10
0000105E  E92B020000        jmp 0x128e
00001063  83EC08            sub esp,byte +0x8
00001066  6844250000        push dword 0x2544
0000106B  6884300000        push dword 0x3084
00001070  E82AF2FFFF        call 0x29f
00001075  83C410            add esp,byte +0x10
00001078  E911020000        jmp 0x128e
0000107D  83EC08            sub esp,byte +0x8
00001080  6846250000        push dword 0x2546
00001085  6884300000        push dword 0x3084
0000108A  E810F2FFFF        call 0x29f
0000108F  83C410            add esp,byte +0x10
00001092  E9F7010000        jmp 0x128e
00001097  83EC08            sub esp,byte +0x8
0000109A  6848250000        push dword 0x2548
0000109F  6884300000        push dword 0x3084
000010A4  E8F6F1FFFF        call 0x29f
000010A9  83C410            add esp,byte +0x10
000010AC  E9DD010000        jmp 0x128e
000010B1  83EC08            sub esp,byte +0x8
000010B4  684A250000        push dword 0x254a
000010B9  6884300000        push dword 0x3084
000010BE  E8DCF1FFFF        call 0x29f
000010C3  83C410            add esp,byte +0x10
000010C6  E9C3010000        jmp 0x128e
000010CB  83EC08            sub esp,byte +0x8
000010CE  684C250000        push dword 0x254c
000010D3  6884300000        push dword 0x3084
000010D8  E8C2F1FFFF        call 0x29f
000010DD  83C410            add esp,byte +0x10
000010E0  E9A9010000        jmp 0x128e
000010E5  83EC08            sub esp,byte +0x8
000010E8  684E250000        push dword 0x254e
000010ED  6884300000        push dword 0x3084
000010F2  E8A8F1FFFF        call 0x29f
000010F7  83C410            add esp,byte +0x10
000010FA  E98F010000        jmp 0x128e
000010FF  83EC08            sub esp,byte +0x8
00001102  6850250000        push dword 0x2550
00001107  6884300000        push dword 0x3084
0000110C  E88EF1FFFF        call 0x29f
00001111  83C410            add esp,byte +0x10
00001114  E975010000        jmp 0x128e
00001119  83EC08            sub esp,byte +0x8
0000111C  6857250000        push dword 0x2557
00001121  6884300000        push dword 0x3084
00001126  E874F1FFFF        call 0x29f
0000112B  83C410            add esp,byte +0x10
0000112E  E95B010000        jmp 0x128e
00001133  83EC08            sub esp,byte +0x8
00001136  6859250000        push dword 0x2559
0000113B  6884300000        push dword 0x3084
00001140  E85AF1FFFF        call 0x29f
00001145  83C410            add esp,byte +0x10
00001148  E941010000        jmp 0x128e
0000114D  83EC08            sub esp,byte +0x8
00001150  685B250000        push dword 0x255b
00001155  6884300000        push dword 0x3084
0000115A  E840F1FFFF        call 0x29f
0000115F  83C410            add esp,byte +0x10
00001162  E927010000        jmp 0x128e
00001167  83EC08            sub esp,byte +0x8
0000116A  685D250000        push dword 0x255d
0000116F  6884300000        push dword 0x3084
00001174  E826F1FFFF        call 0x29f
00001179  83C410            add esp,byte +0x10
0000117C  E90D010000        jmp 0x128e
00001181  83EC08            sub esp,byte +0x8
00001184  685F250000        push dword 0x255f
00001189  6884300000        push dword 0x3084
0000118E  E80CF1FFFF        call 0x29f
00001193  83C410            add esp,byte +0x10
00001196  E9F3000000        jmp 0x128e
0000119B  83EC08            sub esp,byte +0x8
0000119E  6861250000        push dword 0x2561
000011A3  6884300000        push dword 0x3084
000011A8  E8F2F0FFFF        call 0x29f
000011AD  83C410            add esp,byte +0x10
000011B0  E9D9000000        jmp 0x128e
000011B5  83EC08            sub esp,byte +0x8
000011B8  6863250000        push dword 0x2563
000011BD  6884300000        push dword 0x3084
000011C2  E8D8F0FFFF        call 0x29f
000011C7  83C410            add esp,byte +0x10
000011CA  E9BF000000        jmp 0x128e
000011CF  83EC08            sub esp,byte +0x8
000011D2  6865250000        push dword 0x2565
000011D7  6884300000        push dword 0x3084
000011DC  E8BEF0FFFF        call 0x29f
000011E1  83C410            add esp,byte +0x10
000011E4  E9A5000000        jmp 0x128e
000011E9  83EC08            sub esp,byte +0x8
000011EC  6867250000        push dword 0x2567
000011F1  6884300000        push dword 0x3084
000011F6  E8A4F0FFFF        call 0x29f
000011FB  83C410            add esp,byte +0x10
000011FE  E98B000000        jmp 0x128e
00001203  83EC08            sub esp,byte +0x8
00001206  6869250000        push dword 0x2569
0000120B  6884300000        push dword 0x3084
00001210  E88AF0FFFF        call 0x29f
00001215  83C410            add esp,byte +0x10
00001218  EB74              jmp short 0x128e
0000121A  83EC08            sub esp,byte +0x8
0000121D  686B250000        push dword 0x256b
00001222  6884300000        push dword 0x3084
00001227  E873F0FFFF        call 0x29f
0000122C  83C410            add esp,byte +0x10
0000122F  EB5D              jmp short 0x128e
00001231  83EC08            sub esp,byte +0x8
00001234  686D250000        push dword 0x256d
00001239  6884300000        push dword 0x3084
0000123E  E85CF0FFFF        call 0x29f
00001243  83C410            add esp,byte +0x10
00001246  EB46              jmp short 0x128e
00001248  83EC08            sub esp,byte +0x8
0000124B  6874250000        push dword 0x2574
00001250  6884300000        push dword 0x3084
00001255  E845F0FFFF        call 0x29f
0000125A  83C410            add esp,byte +0x10
0000125D  EB2F              jmp short 0x128e
0000125F  83EC08            sub esp,byte +0x8
00001262  687D250000        push dword 0x257d
00001267  6884300000        push dword 0x3084
0000126C  E82EF0FFFF        call 0x29f
00001271  83C410            add esp,byte +0x10
00001274  EB18              jmp short 0x128e
00001276  83EC08            sub esp,byte +0x8
00001279  6882250000        push dword 0x2582
0000127E  6884300000        push dword 0x3084
00001283  E817F0FFFF        call 0x29f
00001288  83C410            add esp,byte +0x10
0000128B  EB01              jmp short 0x128e
0000128D  90                nop
0000128E  90                nop
0000128F  C9                leave
00001290  C3                ret
00001291  55                push ebp
00001292  89E5              mov ebp,esp
00001294  81EC08010000      sub esp,0x108
0000129A  A180300000        mov eax,[0x3080]
0000129F  40                inc eax
000012A0  A380300000        mov [0x3080],eax
000012A5  83EC08            sub esp,byte +0x8
000012A8  6870260000        push dword 0x2670
000012AD  6884300000        push dword 0x3084
000012B2  E8E8EFFFFF        call 0x29f
000012B7  83C410            add esp,byte +0x10
000012BA  A180300000        mov eax,[0x3080]
000012BF  83EC08            sub esp,byte +0x8
000012C2  8D95F8FEFFFF      lea edx,[ebp-0x108]
000012C8  52                push edx
000012C9  50                push eax
000012CA  E809F6FFFF        call 0x8d8
000012CF  83C410            add esp,byte +0x10
000012D2  83EC08            sub esp,byte +0x8
000012D5  8D85F8FEFFFF      lea eax,[ebp-0x108]
000012DB  50                push eax
000012DC  6884300000        push dword 0x3084
000012E1  E8B9EFFFFF        call 0x29f
000012E6  83C410            add esp,byte +0x10
000012E9  83EC08            sub esp,byte +0x8
000012EC  6877260000        push dword 0x2677
000012F1  6884300000        push dword 0x3084
000012F6  E8A4EFFFFF        call 0x29f
000012FB  83C410            add esp,byte +0x10
000012FE  90                nop
000012FF  C9                leave
00001300  C3                ret
00001301  55                push ebp
00001302  89E5              mov ebp,esp
00001304  83EC18            sub esp,byte +0x18
00001307  83EC08            sub esp,byte +0x8
0000130A  6891220000        push dword 0x2291
0000130F  6A20              push byte +0x20
00001311  E8F6F3FFFF        call 0x70c
00001316  83C410            add esp,byte +0x10
00001319  B8DC341200        mov eax,0x1234dc
0000131E  99                cdq
0000131F  F77D08            idiv dword [ebp+0x8]
00001322  8945F4            mov [ebp-0xc],eax
00001325  8B45F4            mov eax,[ebp-0xc]
00001328  8845F3            mov [ebp-0xd],al
0000132B  8B45F4            mov eax,[ebp-0xc]
0000132E  C1F808            sar eax,byte 0x8
00001331  8845F2            mov [ebp-0xe],al
00001334  83EC08            sub esp,byte +0x8
00001337  6A36              push byte +0x36
00001339  6A43              push byte +0x43
0000133B  E864F8FFFF        call 0xba4
00001340  83C410            add esp,byte +0x10
00001343  0FBE45F3          movsx eax,byte [ebp-0xd]
00001347  83EC08            sub esp,byte +0x8
0000134A  50                push eax
0000134B  6A40              push byte +0x40
0000134D  E852F8FFFF        call 0xba4
00001352  83C410            add esp,byte +0x10
00001355  0FBE45F2          movsx eax,byte [ebp-0xe]
00001359  83EC08            sub esp,byte +0x8
0000135C  50                push eax
0000135D  6A40              push byte +0x40
0000135F  E840F8FFFF        call 0xba4
00001364  83C410            add esp,byte +0x10
00001367  90                nop
00001368  C9                leave
00001369  C3                ret
0000136A  0000              add [eax],al
0000136C  4C                dec esp
0000136D  6F                outsd
0000136E  61                popa
0000136F  64696E6720494454  imul ebp,[fs:esi+0x67],dword 0x54444920
00001377  0A00              or al,[eax]
00001379  44                inc esp
0000137A  69766973696F6E    imul esi,[esi+0x69],dword 0x6e6f6973
00001381  204279            and [edx+0x79],al
00001384  205A65            and [edx+0x65],bl
00001387  726F              jc 0x13f8
00001389  00446562          add [ebp+0x62],al
0000138D  7567              jnz 0x13f6
0000138F  004E6F            add [esi+0x6f],cl
00001392  6E                outsb
00001393  204D61            and [ebp+0x61],cl
00001396  736B              jnc 0x1403
00001398  61                popa
00001399  626C6520          bound ebp,[ebp+0x20]
0000139D  49                dec ecx
0000139E  6E                outsb
0000139F  7465              jz 0x1406
000013A1  7272              jc 0x1415
000013A3  7570              jnz 0x1415
000013A5  7400              jz 0x13a7
000013A7  42                inc edx
000013A8  7265              jc 0x140f
000013AA  61                popa
000013AB  6B706F69          imul esi,[eax+0x6f],byte +0x69
000013AF  6E                outsb
000013B0  7400              jz 0x13b2
000013B2  49                dec ecx
000013B3  6E                outsb
000013B4  746F              jz 0x1425
000013B6  20446574          and [ebp+0x74],al
000013BA  6563746564        arpl [gs:ebp+0x64],si
000013BF  204F76            and [edi+0x76],cl
000013C2  657266            gs jc 0x142b
000013C5  6C                insb
000013C6  6F                outsd
000013C7  7700              ja 0x13c9
000013C9  4F                dec edi
000013CA  7574              jnz 0x1440
000013CC  206F66            and [edi+0x66],ch
000013CF  20426F            and [edx+0x6f],al
000013D2  756E              jnz 0x1442
000013D4  647300            fs jnc 0x13d7
000013D7  49                dec ecx
000013D8  6E                outsb
000013D9  7661              jna 0x143c
000013DB  6C                insb
000013DC  6964204F70636F64  imul esp,[eax+0x4f],dword 0x646f6370
000013E4  65004E6F          add [gs:esi+0x6f],cl
000013E8  20436F            and [ebx+0x6f],al
000013EB  7072              jo 0x145f
000013ED  6F                outsd
000013EE  636573            arpl [ebp+0x73],sp
000013F1  736F              jnc 0x1462
000013F3  7200              jc 0x13f5
000013F5  44                inc esp
000013F6  6F                outsd
000013F7  7562              jnz 0x145b
000013F9  6C                insb
000013FA  65204661          and [gs:esi+0x61],al
000013FE  756C              jnz 0x146c
00001400  7400              jz 0x1402
00001402  43                inc ebx
00001403  6F                outsd
00001404  7072              jo 0x1478
00001406  6F                outsd
00001407  636573            arpl [ebp+0x73],sp
0000140A  736F              jnc 0x147b
0000140C  7220              jc 0x142e
0000140E  53                push ebx
0000140F  65676D            gs a16 insd
00001412  656E              gs outsb
00001414  7420              jz 0x1436
00001416  4F                dec edi
00001417  7665              jna 0x147e
00001419  7272              jc 0x148d
0000141B  756E              jnz 0x148b
0000141D  004261            add [edx+0x61],al
00001420  6420545353        and [fs:ebx+edx*2+0x53],dl
00001425  005365            add [ebx+0x65],dl
00001428  676D              a16 insd
0000142A  656E              gs outsb
0000142C  7420              jz 0x144e
0000142E  4E                dec esi
0000142F  6F                outsd
00001430  7420              jz 0x1452
00001432  50                push eax
00001433  7265              jc 0x149a
00001435  7365              jnc 0x149c
00001437  6E                outsb
00001438  7400              jz 0x143a
0000143A  53                push ebx
0000143B  7461              jz 0x149e
0000143D  636B20            arpl [ebx+0x20],bp
00001440  46                inc esi
00001441  61                popa
00001442  756C              jnz 0x14b0
00001444  7400              jz 0x1446
00001446  47                inc edi
00001447  656E              gs outsb
00001449  657261            gs jc 0x14ad
0000144C  6C                insb
0000144D  205072            and [eax+0x72],dl
00001450  6F                outsd
00001451  7465              jz 0x14b8
00001453  6374696F          arpl [ecx+ebp*2+0x6f],si
00001457  6E                outsb
00001458  204661            and [esi+0x61],al
0000145B  756C              jnz 0x14c9
0000145D  7400              jz 0x145f
0000145F  50                push eax
00001460  61                popa
00001461  6765204661        and [gs:bp+0x61],al
00001466  756C              jnz 0x14d4
00001468  7400              jz 0x146a
0000146A  55                push ebp
0000146B  6E                outsb
0000146C  6B6E6F77          imul ebp,[esi+0x6f],byte +0x77
00001470  6E                outsb
00001471  20496E            and [ecx+0x6e],cl
00001474  7465              jz 0x14db
00001476  7272              jc 0x14ea
00001478  7570              jnz 0x14ea
0000147A  7400              jz 0x147c
0000147C  43                inc ebx
0000147D  6F                outsd
0000147E  7072              jo 0x14f2
00001480  6F                outsd
00001481  636573            arpl [ebp+0x73],sp
00001484  736F              jnc 0x14f5
00001486  7220              jc 0x14a8
00001488  46                inc esi
00001489  61                popa
0000148A  756C              jnz 0x14f8
0000148C  7400              jz 0x148e
0000148E  41                inc ecx
0000148F  6C                insb
00001490  69676E6D656E74    imul esp,[edi+0x6e],dword 0x746e656d
00001497  204368            and [ebx+0x68],al
0000149A  65636B00          arpl [gs:ebx+0x0],bp
0000149E  4D                dec ebp
0000149F  61                popa
000014A0  636869            arpl [eax+0x69],bp
000014A3  6E                outsb
000014A4  65204368          and [gs:ebx+0x68],al
000014A8  65636B00          arpl [gs:ebx+0x0],bp
000014AC  52                push edx
000014AD  657365            gs jnc 0x1515
000014B0  7276              jc 0x1528
000014B2  6564007265        add [fs:edx+0x65],dh
000014B7  636569            arpl [ebp+0x69],sp
000014BA  7665              jna 0x1521
000014BC  6420696E          and [fs:ecx+0x6e],ch
000014C0  7465              jz 0x1527
000014C2  7272              jc 0x1536
000014C4  7570              jnz 0x1536
000014C6  743A              jz 0x1502
000014C8  2000              and [eax],al
000014CA  0A00              or al,[eax]
000014CC  4B                dec ebx
000014CD  657962            gs jns 0x1532
000014D0  6F                outsd
000014D1  61                popa
000014D2  7264              jc 0x1538
000014D4  207363            and [ebx+0x63],dh
000014D7  61                popa
000014D8  6E                outsb
000014D9  636F64            arpl [edi+0x64],bp
000014DC  653A20            cmp ah,[gs:eax]
000014DF  0000              add [eax],al
000014E1  2C20              sub al,0x20
000014E3  004552            add [ebp+0x52],al
000014E6  52                push edx
000014E7  4F                dec edi
000014E8  52                push edx
000014E9  004553            add [ebp+0x53],al
000014EC  43                inc ebx
000014ED  0031              add [ecx],dh
000014EF  0032              add [edx],dh
000014F1  0033              add [ebx],dh
000014F3  003400            add [eax+eax],dh
000014F6  3500360037        xor eax,0x37003600
000014FB  0038              add [eax],bh
000014FD  0039              add [ecx],bh
000014FF  0030              add [eax],dh
00001501  002D002B0042      add [dword 0x42002b00],ch
00001507  61                popa
00001508  636B73            arpl [ebx+0x73],bp
0000150B  7061              jo 0x156e
0000150D  636500            arpl [ebp+0x0],sp
00001510  54                push esp
00001511  61                popa
00001512  6200              bound eax,[eax]
00001514  51                push ecx
00001515  005700            add [edi+0x0],dl
00001518  45                inc ebp
00001519  005200            add [edx+0x0],dl
0000151C  54                push esp
0000151D  005900            add [ecx+0x0],bl
00001520  55                push ebp
00001521  004900            add [ecx+0x0],cl
00001524  4F                dec edi
00001525  005000            add [eax+0x0],dl
00001528  5B                pop ebx
00001529  005D00            add [ebp+0x0],bl
0000152C  45                inc ebp
0000152D  4E                dec esi
0000152E  54                push esp
0000152F  45                inc ebp
00001530  52                push edx
00001531  004C4374          add [ebx+eax*2+0x74],cl
00001535  726C              jc 0x15a3
00001537  004100            add [ecx+0x0],al
0000153A  53                push ebx
0000153B  00440046          add [eax+eax+0x46],al
0000153F  004700            add [edi+0x0],al
00001542  48                dec eax
00001543  004A00            add [edx+0x0],cl
00001546  4B                dec ebx
00001547  004C003B          add [eax+eax+0x3b],cl
0000154B  0027              add [edi],ah
0000154D  006000            add [eax+0x0],ah
00001550  4C                dec esp
00001551  53                push ebx
00001552  6869667400        push dword 0x746669
00001557  5C                pop esp
00001558  005A00            add [edx+0x0],bl
0000155B  58                pop eax
0000155C  004300            add [ebx+0x0],al
0000155F  56                push esi
00001560  004200            add [edx+0x0],al
00001563  4E                dec esi
00001564  004D00            add [ebp+0x0],cl
00001567  2C00              sub al,0x0
00001569  2E002F            add [cs:edi],ch
0000156C  005273            add [edx+0x73],dl
0000156F  6869667400        push dword 0x746669
00001574  4B                dec ebx
00001575  657970            gs jns 0x15e8
00001578  61                popa
00001579  64202A            and [fs:edx],ch
0000157C  004C416C          add [ecx+eax*2+0x6c],cl
00001580  7400              jz 0x1582
00001582  53                push ebx
00001583  7063              jo 0x15e8
00001585  0000              add [eax],al
00001587  00BB1C0000D5      add [ebx-0x2affffe4],bh
0000158D  1C00              sbb al,0x0
0000158F  00EF              add bh,ch
00001591  1C00              sbb al,0x0
00001593  0009              add [ecx],cl
00001595  1D0000231D        sbb eax,0x1d230000
0000159A  0000              add [eax],al
0000159C  3D1D000057        cmp eax,0x5700001d
000015A1  1D0000711D        sbb eax,0x1d710000
000015A6  0000              add [eax],al
000015A8  8B1D0000A51D      mov ebx,[dword 0x1da50000]
000015AE  0000              add [eax],al
000015B0  BF1D0000D9        mov edi,0xd900001d
000015B5  1D0000F31D        sbb eax,0x1df30000
000015BA  0000              add [eax],al
000015BC  0D1E000027        or eax,0x2700001e
000015C1  1E                push ds
000015C2  0000              add [eax],al
000015C4  41                inc ecx
000015C5  1E                push ds
000015C6  0000              add [eax],al
000015C8  5B                pop ebx
000015C9  1E                push ds
000015CA  0000              add [eax],al
000015CC  751E              jnz 0x15ec
000015CE  0000              add [eax],al
000015D0  8F                db 0x8f
000015D1  1E                push ds
000015D2  0000              add [eax],al
000015D4  A91E0000C3        test eax,0xc300001e
000015D9  1E                push ds
000015DA  0000              add [eax],al
000015DC  DD1E              fstp qword [esi]
000015DE  0000              add [eax],al
000015E0  F71E              neg dword [esi]
000015E2  0000              add [eax],al
000015E4  111F              adc [edi],ebx
000015E6  0000              add [eax],al
000015E8  2B1F              sub ebx,[edi]
000015EA  0000              add [eax],al
000015EC  45                inc ebp
000015ED  1F                pop ds
000015EE  0000              add [eax],al
000015F0  5F                pop edi
000015F1  1F                pop ds
000015F2  0000              add [eax],al
000015F4  791F              jns 0x1615
000015F6  0000              add [eax],al
000015F8  93                xchg eax,ebx
000015F9  1F                pop ds
000015FA  0000              add [eax],al
000015FC  AD                lodsd
000015FD  1F                pop ds
000015FE  0000              add [eax],al
00001600  C7                db 0xc7
00001601  1F                pop ds
00001602  0000              add [eax],al
00001604  E11F              loope 0x1625
00001606  0000              add [eax],al
00001608  FB                sti
00001609  1F                pop ds
0000160A  0000              add [eax],al
0000160C  152000002F        adc eax,0x2f000020
00001611  2000              and [eax],al
00001613  004920            add [ecx+0x20],cl
00001616  0000              add [eax],al
00001618  6320              arpl [eax],sp
0000161A  0000              add [eax],al
0000161C  7D20              jnl 0x163e
0000161E  0000              add [eax],al
00001620  97                xchg eax,edi
00001621  2000              and [eax],al
00001623  00B1200000CB      add [ecx-0x34ffffe0],dh
00001629  2000              and [eax],al
0000162B  00E5              add ch,ah
0000162D  2000              and [eax],al
0000162F  00FF              add bh,bh
00001631  2000              and [eax],al
00001633  0019              add [ecx],bl
00001635  2100              and [eax],eax
00001637  0033              add [ebx],dh
00001639  2100              and [eax],eax
0000163B  004D21            add [ebp+0x21],cl
0000163E  0000              add [eax],al
00001640  672100            and [bx+si],eax
00001643  00812100009B      add [ecx-0x64ffffdf],al
00001649  2100              and [eax],eax
0000164B  00B5210000CF      add [ebp-0x30ffffdf],dh
00001651  2100              and [eax],eax
00001653  00E9              add cl,ch
00001655  2100              and [eax],eax
00001657  0003              add [ebx],al
00001659  2200              and al,[eax]
0000165B  001A              add [edx],bl
0000165D  2200              and al,[eax]
0000165F  0031              add [ecx],dh
00001661  2200              and al,[eax]
00001663  004822            add [eax+0x22],cl
00001666  0000              add [eax],al
00001668  5F                pop edi
00001669  2200              and al,[eax]
0000166B  007622            add [esi+0x22],dh
0000166E  0000              add [eax],al
00001670  54                push esp
00001671  69636B3A20000A    imul esp,[ebx+0x6b],dword 0xa00203a
00001678  0000              add [eax],al
0000167A  0000              add [eax],al
0000167C  1400              adc al,0x0
0000167E  0000              add [eax],al
00001680  0000              add [eax],al
00001682  0000              add [eax],al
00001684  017A52            add [edx+0x52],edi
00001687  0001              add [ecx],al
00001689  7C08              jl 0x1693
0000168B  011B              add [ebx],ebx
0000168D  0C04              or al,0x4
0000168F  0488              add al,0x88
00001691  0100              add [eax],eax
00001693  001C00            add [eax+eax],bl
00001696  0000              add [eax],al
00001698  1C00              sbb al,0x0
0000169A  0000              add [eax],al
0000169C  6BE9FF            imul ebp,ecx,byte -0x1
0000169F  FF06              inc dword [esi]
000016A1  0000              add [eax],al
000016A3  0000              add [eax],al
000016A5  41                inc ecx
000016A6  0E                push cs
000016A7  088502420D05      or [ebp+0x50d4202],al
000016AD  42                inc edx
000016AE  C50C04            lds ecx,[esp+eax]
000016B1  0400              add al,0x0
000016B3  0028              add [eax],ch
000016B5  0000              add [eax],al
000016B7  003C00            add [eax+eax],bh
000016BA  0000              add [eax],al
000016BC  51                push ecx
000016BD  E9FFFF7200        jmp 0x7316c1
000016C2  0000              add [eax],al
000016C4  00440C01          add [esp+ecx+0x1],al
000016C8  004710            add [edi+0x10],al
000016CB  0502750043        add eax,0x43007502
000016D0  0F03757C          lsl esi,[ebp+0x7c]
000016D4  06                push es
000016D5  025F0C            add bl,[edi+0xc]
000016D8  0100              add [eax],eax
000016DA  41                inc ecx
000016DB  C5430C            lds eax,[ebx+0xc]
000016DE  0404              add al,0x4
000016E0  1400              adc al,0x0
000016E2  0000              add [eax],al
000016E4  0000              add [eax],al
000016E6  0000              add [eax],al
000016E8  017A52            add [edx+0x52],edi
000016EB  0001              add [ecx],al
000016ED  7C08              jl 0x16f7
000016EF  011B              add [ebx],ebx
000016F1  0C04              or al,0x4
000016F3  0488              add al,0x88
000016F5  0100              add [eax],eax
000016F7  001C00            add [eax+eax],bl
000016FA  0000              add [eax],al
000016FC  1C00              sbb al,0x0
000016FE  0000              add [eax],al
00001700  7FE9              jg 0x16eb
00001702  FF                db 0xff
00001703  FF5F00            call far [edi+0x0]
00001706  0000              add [eax],al
00001708  00410E            add [ecx+0xe],al
0000170B  088502420D05      or [ebp+0x50d4202],al
00001711  025BC5            add bl,[ebx-0x3b]
00001714  0C04              or al,0x4
00001716  0400              add al,0x0
00001718  1C00              sbb al,0x0
0000171A  0000              add [eax],al
0000171C  3C00              cmp al,0x0
0000171E  0000              add [eax],al
00001720  BEE9FFFF2E        mov esi,0x2effffe9
00001725  0000              add [eax],al
00001727  0000              add [eax],al
00001729  41                inc ecx
0000172A  0E                push cs
0000172B  088502420D05      or [ebp+0x50d4202],al
00001731  6AC5              push byte -0x3b
00001733  0C04              or al,0x4
00001735  0400              add al,0x0
00001737  001C00            add [eax+eax],bl
0000173A  0000              add [eax],al
0000173C  5C                pop esp
0000173D  0000              add [eax],al
0000173F  00CC              add ah,cl
00001741  E9FFFFD300        jmp 0xd41745
00001746  0000              add [eax],al
00001748  00410E            add [ecx+0xe],al
0000174B  088502420D05      or [ebp+0x50d4202],al
00001751  02CF              add cl,bh
00001753  C50C04            lds ecx,[esp+eax]
00001756  0400              add al,0x0
00001758  1C00              sbb al,0x0
0000175A  0000              add [eax],al
0000175C  7C00              jl 0x175e
0000175E  0000              add [eax],al
00001760  7FEA              jg 0x174c
00001762  FF                db 0xff
00001763  FF                db 0xff
00001764  3C00              cmp al,0x0
00001766  0000              add [eax],al
00001768  00410E            add [ecx+0xe],al
0000176B  088502420D05      or [ebp+0x50d4202],al
00001771  78C5              js 0x1738
00001773  0C04              or al,0x4
00001775  0400              add al,0x0
00001777  001C00            add [eax+eax],bl
0000177A  0000              add [eax],al
0000177C  9C                pushf
0000177D  0000              add [eax],al
0000177F  009BEAFFFF6C      add [ebx+0x6cffffea],bl
00001785  0000              add [eax],al
00001787  0000              add [eax],al
00001789  41                inc ecx
0000178A  0E                push cs
0000178B  088502420D05      or [ebp+0x50d4202],al
00001791  0268C5            add ch,[eax-0x3b]
00001794  0C04              or al,0x4
00001796  0400              add al,0x0
00001798  1C00              sbb al,0x0
0000179A  0000              add [eax],al
0000179C  BC000000E7        mov esp,0xe7000000
000017A1  EAFFFF18000000    jmp 0x0:0x18ffff
000017A8  00410E            add [ecx+0xe],al
000017AB  088502420D05      or [ebp+0x50d4202],al
000017B1  54                push esp
000017B2  C50C04            lds ecx,[esp+eax]
000017B5  0400              add al,0x0
000017B7  001C00            add [eax+eax],bl
000017BA  0000              add [eax],al
000017BC  DC00              fadd qword [eax]
000017BE  0000              add [eax],al
000017C0  DFEA              fucomip st2
000017C2  FF                db 0xff
000017C3  FF                db 0xff
000017C4  3D00000000        cmp eax,0x0
000017C9  41                inc ecx
000017CA  0E                push cs
000017CB  088502420D05      or [ebp+0x50d4202],al
000017D1  79C5              jns 0x1798
000017D3  0C04              or al,0x4
000017D5  0400              add al,0x0
000017D7  001400            add [eax+eax],dl
000017DA  0000              add [eax],al
000017DC  0000              add [eax],al
000017DE  0000              add [eax],al
000017E0  017A52            add [edx+0x52],edi
000017E3  0001              add [ecx],al
000017E5  7C08              jl 0x17ef
000017E7  011B              add [ebx],ebx
000017E9  0C04              or al,0x4
000017EB  0488              add al,0x88
000017ED  0100              add [eax],eax
000017EF  001C00            add [eax+eax],bl
000017F2  0000              add [eax],al
000017F4  1C00              sbb al,0x0
000017F6  0000              add [eax],al
000017F8  E4EA              in al,0xea
000017FA  FF                db 0xff
000017FB  FF30              push dword [eax]
000017FD  0400              add al,0x0
000017FF  0000              add [eax],al
00001801  41                inc ecx
00001802  0E                push cs
00001803  088502420D05      or [ebp+0x50d4202],al
00001809  032C04            add ebp,[esp+eax]
0000180C  C50C04            lds ecx,[esp+eax]
0000180F  041C              add al,0x1c
00001811  0000              add [eax],al
00001813  003C00            add [eax+eax],bh
00001816  0000              add [eax],al
00001818  F4                hlt
00001819  EE                out dx,al
0000181A  FF                db 0xff
0000181B  FF1D00000000      call far [dword 0x0]
00001821  41                inc ecx
00001822  0E                push cs
00001823  088502420D05      or [ebp+0x50d4202],al
00001829  59                pop ecx
0000182A  C50C04            lds ecx,[esp+eax]
0000182D  0400              add al,0x0
0000182F  0028              add [eax],ch
00001831  0000              add [eax],al
00001833  005C0000          add [eax+eax+0x0],bl
00001837  00F1              add cl,dh
00001839  EE                out dx,al
0000183A  FF                db 0xff
0000183B  FF7500            push dword [ebp+0x0]
0000183E  0000              add [eax],al
00001840  00410E            add [ecx+0xe],al
00001843  088502420D05      or [ebp+0x50d4202],al
00001849  46                inc esi
0000184A  8703              xchg eax,[ebx]
0000184C  860483            xchg al,[ebx+eax*4]
0000184F  050268C341        add eax,0x41c36802
00001854  C641C741          mov byte [ecx-0x39],0x41
00001858  C50C04            lds ecx,[esp+eax]
0000185B  041C              add al,0x1c
0000185D  0000              add [eax],al
0000185F  00880000003A      add [eax+0x3a000000],cl
00001865  EF                out dx,eax
00001866  FF                db 0xff
00001867  FF5A00            call far [edx+0x0]
0000186A  0000              add [eax],al
0000186C  00410E            add [ecx+0xe],al
0000186F  088502420D05      or [ebp+0x50d4202],al
00001875  0256C5            add dl,[esi-0x3b]
00001878  0C04              or al,0x4
0000187A  0400              add al,0x0
0000187C  1400              adc al,0x0
0000187E  0000              add [eax],al
00001880  0000              add [eax],al
00001882  0000              add [eax],al
00001884  017A52            add [edx+0x52],edi
00001887  0001              add [ecx],al
00001889  7C08              jl 0x1893
0000188B  011B              add [ebx],ebx
0000188D  0C04              or al,0x4
0000188F  0488              add al,0x88
00001891  0100              add [eax],eax
00001893  001C00            add [eax+eax],bl
00001896  0000              add [eax],al
00001898  1C00              sbb al,0x0
0000189A  0000              add [eax],al
0000189C  5C                pop esp
0000189D  EF                out dx,eax
0000189E  FF                db 0xff
0000189F  FF5E00            call far [esi+0x0]
000018A2  0000              add [eax],al
000018A4  00410E            add [ecx+0xe],al
000018A7  088502420D05      or [ebp+0x50d4202],al
000018AD  025AC5            add bl,[edx-0x3b]
000018B0  0C04              or al,0x4
000018B2  0400              add al,0x0
000018B4  1C00              sbb al,0x0
000018B6  0000              add [eax],al
000018B8  3C00              cmp al,0x0
000018BA  0000              add [eax],al
000018BC  9AEFFFFF210000    call 0x0:0x21ffffef
000018C3  0000              add [eax],al
000018C5  41                inc ecx
000018C6  0E                push cs
000018C7  088502420D05      or [ebp+0x50d4202],al
000018CD  5D                pop ebp
000018CE  C50C04            lds ecx,[esp+eax]
000018D1  0400              add al,0x0
000018D3  001400            add [eax+eax],dl
000018D6  0000              add [eax],al
000018D8  0000              add [eax],al
000018DA  0000              add [eax],al
000018DC  017A52            add [edx+0x52],edi
000018DF  0001              add [ecx],al
000018E1  7C08              jl 0x18eb
000018E3  011B              add [ebx],ebx
000018E5  0C04              or al,0x4
000018E7  0488              add al,0x88
000018E9  0100              add [eax],eax
000018EB  001C00            add [eax+eax],bl
000018EE  0000              add [eax],al
000018F0  1C00              sbb al,0x0
000018F2  0000              add [eax],al
000018F4  83EFFF            sub edi,byte -0x1
000018F7  FF32              push dword [edx]
000018F9  0000              add [eax],al
000018FB  0000              add [eax],al
000018FD  41                inc ecx
000018FE  0E                push cs
000018FF  088502420D05      or [ebp+0x50d4202],al
00001905  6E                outsb
00001906  C50C04            lds ecx,[esp+eax]
00001909  0400              add al,0x0
0000190B  001C00            add [eax+eax],bl
0000190E  0000              add [eax],al
00001910  3C00              cmp al,0x0
00001912  0000              add [eax],al
00001914  95                xchg eax,ebp
00001915  EF                out dx,eax
00001916  FF                db 0xff
00001917  FF2F              jmp far [edi]
00001919  0000              add [eax],al
0000191B  0000              add [eax],al
0000191D  41                inc ecx
0000191E  0E                push cs
0000191F  088502420D05      or [ebp+0x50d4202],al
00001925  6BC50C            imul eax,ebp,byte +0xc
00001928  0404              add al,0x4
0000192A  0000              add [eax],al
0000192C  1C00              sbb al,0x0
0000192E  0000              add [eax],al
00001930  5C                pop esp
00001931  0000              add [eax],al
00001933  00A4EFFFFF8600    add [edi+ebp*8+0x86ffff],ah
0000193A  0000              add [eax],al
0000193C  00410E            add [ecx+0xe],al
0000193F  088502420D05      or [ebp+0x50d4202],al
00001945  0282C50C0404      add al,[edx+0x4040cc5]
0000194B  001C00            add [eax+eax],bl
0000194E  0000              add [eax],al
00001950  7C00              jl 0x1952
00001952  0000              add [eax],al
00001954  0AF0              or dh,al
00001956  FF                db 0xff
00001957  FF08              dec dword [eax]
00001959  0000              add [eax],al
0000195B  0000              add [eax],al
0000195D  41                inc ecx
0000195E  0E                push cs
0000195F  088502420D05      or [ebp+0x50d4202],al
00001965  44                inc esp
00001966  C50C04            lds ecx,[esp+eax]
00001969  0400              add al,0x0
0000196B  001C00            add [eax+eax],bl
0000196E  0000              add [eax],al
00001970  9C                pushf
00001971  0000              add [eax],al
00001973  00F2              add dl,dh
00001975  EF                out dx,eax
00001976  FF                db 0xff
00001977  FF0B              dec dword [ebx]
00001979  0000              add [eax],al
0000197B  0000              add [eax],al
0000197D  41                inc ecx
0000197E  0E                push cs
0000197F  088502420D05      or [ebp+0x50d4202],al
00001985  47                inc edi
00001986  C50C04            lds ecx,[esp+eax]
00001989  0400              add al,0x0
0000198B  001400            add [eax+eax],dl
0000198E  0000              add [eax],al
00001990  0000              add [eax],al
00001992  0000              add [eax],al
00001994  017A52            add [edx+0x52],edi
00001997  0001              add [ecx],al
00001999  7C08              jl 0x19a3
0000199B  011B              add [ebx],ebx
0000199D  0C04              or al,0x4
0000199F  0488              add al,0x88
000019A1  0100              add [eax],eax
000019A3  001C00            add [eax+eax],bl
000019A6  0000              add [eax],al
000019A8  1C00              sbb al,0x0
000019AA  0000              add [eax],al
000019AC  DD                db 0xdd
000019AD  F1                int1
000019AE  FF                db 0xff
000019AF  FF1B              call far [ebx]
000019B1  0000              add [eax],al
000019B3  0000              add [eax],al
000019B5  41                inc ecx
000019B6  0E                push cs
000019B7  088502420D05      or [ebp+0x50d4202],al
000019BD  57                push edi
000019BE  C50C04            lds ecx,[esp+eax]
000019C1  0400              add al,0x0
000019C3  001C00            add [eax+eax],bl
000019C6  0000              add [eax],al
000019C8  3C00              cmp al,0x0
000019CA  0000              add [eax],al
000019CC  D8F1              fdiv st1
000019CE  FF                db 0xff
000019CF  FF1F              call far [edi]
000019D1  0000              add [eax],al
000019D3  0000              add [eax],al
000019D5  41                inc ecx
000019D6  0E                push cs
000019D7  088502420D05      or [ebp+0x50d4202],al
000019DD  5B                pop ebx
000019DE  C50C04            lds ecx,[esp+eax]
000019E1  0400              add al,0x0
000019E3  001C00            add [eax+eax],bl
000019E6  0000              add [eax],al
000019E8  5C                pop esp
000019E9  0000              add [eax],al
000019EB  00D7              add bh,dl
000019ED  F1                int1
000019EE  FF                db 0xff
000019EF  FF1E              call far [esi]
000019F1  0000              add [eax],al
000019F3  0000              add [eax],al
000019F5  41                inc ecx
000019F6  0E                push cs
000019F7  088502420D05      or [ebp+0x50d4202],al
000019FD  5A                pop edx
000019FE  C50C04            lds ecx,[esp+eax]
00001A01  0400              add al,0x0
00001A03  001C00            add [eax+eax],bl
00001A06  0000              add [eax],al
00001A08  7C00              jl 0x1a0a
00001A0A  0000              add [eax],al
00001A0C  D5F1              aad 0xf1
00001A0E  FF                db 0xff
00001A0F  FF1F              call far [edi]
00001A11  0000              add [eax],al
00001A13  0000              add [eax],al
00001A15  41                inc ecx
00001A16  0E                push cs
00001A17  088502420D05      or [ebp+0x50d4202],al
00001A1D  5B                pop ebx
00001A1E  C50C04            lds ecx,[esp+eax]
00001A21  0400              add al,0x0
00001A23  001400            add [eax+eax],dl
00001A26  0000              add [eax],al
00001A28  0000              add [eax],al
00001A2A  0000              add [eax],al
00001A2C  017A52            add [edx+0x52],edi
00001A2F  0001              add [ecx],al
00001A31  7C08              jl 0x1a3b
00001A33  011B              add [ebx],ebx
00001A35  0C04              or al,0x4
00001A37  0488              add al,0x88
00001A39  0100              add [eax],eax
00001A3B  001C00            add [eax+eax],bl
00001A3E  0000              add [eax],al
00001A40  1C00              sbb al,0x0
00001A42  0000              add [eax],al
00001A44  BCF1FFFF7E        mov esp,0x7efffff1
00001A49  0000              add [eax],al
00001A4B  0000              add [eax],al
00001A4D  41                inc ecx
00001A4E  0E                push cs
00001A4F  088502420D05      or [ebp+0x50d4202],al
00001A55  027AC5            add bh,[edx-0x3b]
00001A58  0C04              or al,0x4
00001A5A  0400              add al,0x0
00001A5C  1C00              sbb al,0x0
00001A5E  0000              add [eax],al
00001A60  3C00              cmp al,0x0
00001A62  0000              add [eax],al
00001A64  1AF2              sbb dh,dl
00001A66  FF                db 0xff
00001A67  FF1B              call far [ebx]
00001A69  0000              add [eax],al
00001A6B  0000              add [eax],al
00001A6D  41                inc ecx
00001A6E  0E                push cs
00001A6F  088502420D05      or [ebp+0x50d4202],al
00001A75  57                push edi
00001A76  C50C04            lds ecx,[esp+eax]
00001A79  0400              add al,0x0
00001A7B  001C00            add [eax+eax],bl
00001A7E  0000              add [eax],al
00001A80  5C                pop esp
00001A81  0000              add [eax],al
00001A83  0015F2FFFFF8      add [dword 0xf8fffff2],dl
00001A89  0500000041        add eax,0x41000000
00001A8E  0E                push cs
00001A8F  088502420D05      or [ebp+0x50d4202],al
00001A95  03F4              add esi,esp
00001A97  05C50C0404        add eax,0x4040cc5
00001A9C  1400              adc al,0x0
00001A9E  0000              add [eax],al
00001AA0  0000              add [eax],al
00001AA2  0000              add [eax],al
00001AA4  017A52            add [edx+0x52],edi
00001AA7  0001              add [ecx],al
00001AA9  7C08              jl 0x1ab3
00001AAB  011B              add [ebx],ebx
00001AAD  0C04              or al,0x4
00001AAF  0488              add al,0x88
00001AB1  0100              add [eax],eax
00001AB3  001C00            add [eax+eax],bl
00001AB6  0000              add [eax],al
00001AB8  1C00              sbb al,0x0
00001ABA  0000              add [eax],al
00001ABC  D5F7              aad 0xf7
00001ABE  FF                db 0xff
00001ABF  FF7000            push dword [eax+0x0]
00001AC2  0000              add [eax],al
00001AC4  00410E            add [ecx+0xe],al
00001AC7  088502420D05      or [ebp+0x50d4202],al
00001ACD  026CC50C          add ch,[ebp+eax*8+0xc]
00001AD1  0404              add al,0x4
00001AD3  001C00            add [eax+eax],bl
00001AD6  0000              add [eax],al
00001AD8  3C00              cmp al,0x0
00001ADA  0000              add [eax],al
00001ADC  25F8FFFF69        and eax,0x69fffff8
00001AE1  0000              add [eax],al
00001AE3  0000              add [eax],al
00001AE5  41                inc ecx
00001AE6  0E                push cs
00001AE7  088502420D05      or [ebp+0x50d4202],al
00001AED  0265C5            add ah,[ebp-0x3b]
00001AF0  0C04              or al,0x4
00001AF2  0400              add al,0x0
00001AF4  0000              add [eax],al
00001AF6  0000              add [eax],al
00001AF8  0000              add [eax],al
00001AFA  0000              add [eax],al
00001AFC  0000              add [eax],al
00001AFE  0000              add [eax],al
00001B00  0000              add [eax],al
00001B02  0000              add [eax],al
00001B04  0000              add [eax],al
00001B06  0000              add [eax],al
00001B08  0000              add [eax],al
00001B0A  0000              add [eax],al
00001B0C  0000              add [eax],al
00001B0E  0000              add [eax],al
00001B10  0000              add [eax],al
00001B12  0000              add [eax],al
00001B14  0000              add [eax],al
00001B16  0000              add [eax],al
00001B18  0000              add [eax],al
00001B1A  0000              add [eax],al
00001B1C  0000              add [eax],al
00001B1E  0000              add [eax],al
00001B20  0000              add [eax],al
00001B22  0000              add [eax],al
00001B24  0000              add [eax],al
00001B26  0000              add [eax],al
00001B28  0000              add [eax],al
00001B2A  0000              add [eax],al
00001B2C  0000              add [eax],al
00001B2E  0000              add [eax],al
00001B30  0000              add [eax],al
00001B32  0000              add [eax],al
00001B34  0000              add [eax],al
00001B36  0000              add [eax],al
00001B38  0000              add [eax],al
00001B3A  0000              add [eax],al
00001B3C  0000              add [eax],al
00001B3E  0000              add [eax],al
00001B40  0000              add [eax],al
00001B42  0000              add [eax],al
00001B44  0000              add [eax],al
00001B46  0000              add [eax],al
00001B48  0000              add [eax],al
00001B4A  0000              add [eax],al
00001B4C  0000              add [eax],al
00001B4E  0000              add [eax],al
00001B50  0000              add [eax],al
00001B52  0000              add [eax],al
00001B54  0000              add [eax],al
00001B56  0000              add [eax],al
00001B58  0000              add [eax],al
00001B5A  0000              add [eax],al
00001B5C  0000              add [eax],al
00001B5E  0000              add [eax],al
00001B60  0000              add [eax],al
00001B62  0000              add [eax],al
00001B64  0000              add [eax],al
00001B66  0000              add [eax],al
00001B68  0000              add [eax],al
00001B6A  0000              add [eax],al
00001B6C  0000              add [eax],al
00001B6E  0000              add [eax],al
00001B70  0000              add [eax],al
00001B72  0000              add [eax],al
00001B74  0000              add [eax],al
00001B76  0000              add [eax],al
00001B78  0000              add [eax],al
00001B7A  0000              add [eax],al
00001B7C  0000              add [eax],al
00001B7E  0000              add [eax],al
00001B80  0000              add [eax],al
00001B82  0000              add [eax],al
00001B84  0000              add [eax],al
00001B86  0000              add [eax],al
00001B88  0000              add [eax],al
00001B8A  0000              add [eax],al
00001B8C  0000              add [eax],al
00001B8E  0000              add [eax],al
00001B90  0000              add [eax],al
00001B92  0000              add [eax],al
00001B94  0000              add [eax],al
00001B96  0000              add [eax],al
00001B98  0000              add [eax],al
00001B9A  0000              add [eax],al
00001B9C  0000              add [eax],al
00001B9E  0000              add [eax],al
00001BA0  0000              add [eax],al
00001BA2  0000              add [eax],al
00001BA4  0000              add [eax],al
00001BA6  0000              add [eax],al
00001BA8  0000              add [eax],al
00001BAA  0000              add [eax],al
00001BAC  0000              add [eax],al
00001BAE  0000              add [eax],al
00001BB0  0000              add [eax],al
00001BB2  0000              add [eax],al
00001BB4  0000              add [eax],al
00001BB6  0000              add [eax],al
00001BB8  0000              add [eax],al
00001BBA  0000              add [eax],al
00001BBC  0000              add [eax],al
00001BBE  0000              add [eax],al
00001BC0  0000              add [eax],al
00001BC2  0000              add [eax],al
00001BC4  0000              add [eax],al
00001BC6  0000              add [eax],al
00001BC8  0000              add [eax],al
00001BCA  0000              add [eax],al
00001BCC  0000              add [eax],al
00001BCE  0000              add [eax],al
00001BD0  0000              add [eax],al
00001BD2  0000              add [eax],al
00001BD4  0000              add [eax],al
00001BD6  0000              add [eax],al
00001BD8  0000              add [eax],al
00001BDA  0000              add [eax],al
00001BDC  0000              add [eax],al
00001BDE  0000              add [eax],al
00001BE0  0000              add [eax],al
00001BE2  0000              add [eax],al
00001BE4  0000              add [eax],al
00001BE6  0000              add [eax],al
00001BE8  0000              add [eax],al
00001BEA  0000              add [eax],al
00001BEC  0000              add [eax],al
00001BEE  0000              add [eax],al
00001BF0  0000              add [eax],al
00001BF2  0000              add [eax],al
00001BF4  0000              add [eax],al
00001BF6  0000              add [eax],al
00001BF8  0000              add [eax],al
00001BFA  0000              add [eax],al
00001BFC  0000              add [eax],al
00001BFE  0000              add [eax],al
00001C00  0000              add [eax],al
00001C02  0000              add [eax],al
00001C04  0000              add [eax],al
00001C06  0000              add [eax],al
00001C08  0000              add [eax],al
00001C0A  0000              add [eax],al
00001C0C  0000              add [eax],al
00001C0E  0000              add [eax],al
00001C10  0000              add [eax],al
00001C12  0000              add [eax],al
00001C14  0000              add [eax],al
00001C16  0000              add [eax],al
00001C18  0000              add [eax],al
00001C1A  0000              add [eax],al
00001C1C  0000              add [eax],al
00001C1E  0000              add [eax],al
00001C20  0000              add [eax],al
00001C22  0000              add [eax],al
00001C24  0000              add [eax],al
00001C26  0000              add [eax],al
00001C28  0000              add [eax],al
00001C2A  0000              add [eax],al
00001C2C  0000              add [eax],al
00001C2E  0000              add [eax],al
00001C30  0000              add [eax],al
00001C32  0000              add [eax],al
00001C34  0000              add [eax],al
00001C36  0000              add [eax],al
00001C38  0000              add [eax],al
00001C3A  0000              add [eax],al
00001C3C  0000              add [eax],al
00001C3E  0000              add [eax],al
00001C40  0000              add [eax],al
00001C42  0000              add [eax],al
00001C44  0000              add [eax],al
00001C46  0000              add [eax],al
00001C48  0000              add [eax],al
00001C4A  0000              add [eax],al
00001C4C  0000              add [eax],al
00001C4E  0000              add [eax],al
00001C50  0000              add [eax],al
00001C52  0000              add [eax],al
00001C54  0000              add [eax],al
00001C56  0000              add [eax],al
00001C58  0000              add [eax],al
00001C5A  0000              add [eax],al
00001C5C  0000              add [eax],al
00001C5E  0000              add [eax],al
00001C60  0000              add [eax],al
00001C62  0000              add [eax],al
00001C64  0000              add [eax],al
00001C66  0000              add [eax],al
00001C68  0000              add [eax],al
00001C6A  0000              add [eax],al
00001C6C  0000              add [eax],al
00001C6E  0000              add [eax],al
00001C70  0000              add [eax],al
00001C72  0000              add [eax],al
00001C74  0000              add [eax],al
00001C76  0000              add [eax],al
00001C78  0000              add [eax],al
00001C7A  0000              add [eax],al
00001C7C  0000              add [eax],al
00001C7E  0000              add [eax],al
00001C80  0000              add [eax],al
00001C82  0000              add [eax],al
00001C84  0000              add [eax],al
00001C86  0000              add [eax],al
00001C88  0000              add [eax],al
00001C8A  0000              add [eax],al
00001C8C  0000              add [eax],al
00001C8E  0000              add [eax],al
00001C90  0000              add [eax],al
00001C92  0000              add [eax],al
00001C94  0000              add [eax],al
00001C96  0000              add [eax],al
00001C98  0000              add [eax],al
00001C9A  0000              add [eax],al
00001C9C  0000              add [eax],al
00001C9E  0000              add [eax],al
00001CA0  0000              add [eax],al
00001CA2  0000              add [eax],al
00001CA4  0000              add [eax],al
00001CA6  0000              add [eax],al
00001CA8  0000              add [eax],al
00001CAA  0000              add [eax],al
00001CAC  0000              add [eax],al
00001CAE  0000              add [eax],al
00001CB0  0000              add [eax],al
00001CB2  0000              add [eax],al
00001CB4  0000              add [eax],al
00001CB6  0000              add [eax],al
00001CB8  0000              add [eax],al
00001CBA  0000              add [eax],al
00001CBC  0000              add [eax],al
00001CBE  0000              add [eax],al
00001CC0  0000              add [eax],al
00001CC2  0000              add [eax],al
00001CC4  0000              add [eax],al
00001CC6  0000              add [eax],al
00001CC8  0000              add [eax],al
00001CCA  0000              add [eax],al
00001CCC  0000              add [eax],al
00001CCE  0000              add [eax],al
00001CD0  0000              add [eax],al
00001CD2  0000              add [eax],al
00001CD4  0000              add [eax],al
00001CD6  0000              add [eax],al
00001CD8  0000              add [eax],al
00001CDA  0000              add [eax],al
00001CDC  0000              add [eax],al
00001CDE  0000              add [eax],al
00001CE0  0000              add [eax],al
00001CE2  0000              add [eax],al
00001CE4  0000              add [eax],al
00001CE6  0000              add [eax],al
00001CE8  0000              add [eax],al
00001CEA  0000              add [eax],al
00001CEC  0000              add [eax],al
00001CEE  0000              add [eax],al
00001CF0  0000              add [eax],al
00001CF2  0000              add [eax],al
00001CF4  0000              add [eax],al
00001CF6  0000              add [eax],al
00001CF8  0000              add [eax],al
00001CFA  0000              add [eax],al
00001CFC  0000              add [eax],al
00001CFE  0000              add [eax],al
00001D00  0000              add [eax],al
00001D02  0000              add [eax],al
00001D04  0000              add [eax],al
00001D06  0000              add [eax],al
00001D08  0000              add [eax],al
00001D0A  0000              add [eax],al
00001D0C  0000              add [eax],al
00001D0E  0000              add [eax],al
00001D10  0000              add [eax],al
00001D12  0000              add [eax],al
00001D14  0000              add [eax],al
00001D16  0000              add [eax],al
00001D18  0000              add [eax],al
00001D1A  0000              add [eax],al
00001D1C  0000              add [eax],al
00001D1E  0000              add [eax],al
00001D20  0000              add [eax],al
00001D22  0000              add [eax],al
00001D24  0000              add [eax],al
00001D26  0000              add [eax],al
00001D28  0000              add [eax],al
00001D2A  0000              add [eax],al
00001D2C  0000              add [eax],al
00001D2E  0000              add [eax],al
00001D30  0000              add [eax],al
00001D32  0000              add [eax],al
00001D34  0000              add [eax],al
00001D36  0000              add [eax],al
00001D38  0000              add [eax],al
00001D3A  0000              add [eax],al
00001D3C  0000              add [eax],al
00001D3E  0000              add [eax],al
00001D40  0000              add [eax],al
00001D42  0000              add [eax],al
00001D44  0000              add [eax],al
00001D46  0000              add [eax],al
00001D48  0000              add [eax],al
00001D4A  0000              add [eax],al
00001D4C  0000              add [eax],al
00001D4E  0000              add [eax],al
00001D50  0000              add [eax],al
00001D52  0000              add [eax],al
00001D54  0000              add [eax],al
00001D56  0000              add [eax],al
00001D58  0000              add [eax],al
00001D5A  0000              add [eax],al
00001D5C  0000              add [eax],al
00001D5E  0000              add [eax],al
00001D60  0000              add [eax],al
00001D62  0000              add [eax],al
00001D64  0000              add [eax],al
00001D66  0000              add [eax],al
00001D68  0000              add [eax],al
00001D6A  0000              add [eax],al
00001D6C  0000              add [eax],al
00001D6E  0000              add [eax],al
00001D70  0000              add [eax],al
00001D72  0000              add [eax],al
00001D74  0000              add [eax],al
00001D76  0000              add [eax],al
00001D78  0000              add [eax],al
00001D7A  0000              add [eax],al
00001D7C  0000              add [eax],al
00001D7E  0000              add [eax],al
00001D80  0000              add [eax],al
00001D82  0000              add [eax],al
00001D84  0000              add [eax],al
00001D86  0000              add [eax],al
00001D88  0000              add [eax],al
00001D8A  0000              add [eax],al
00001D8C  0000              add [eax],al
00001D8E  0000              add [eax],al
00001D90  0000              add [eax],al
00001D92  0000              add [eax],al
00001D94  0000              add [eax],al
00001D96  0000              add [eax],al
00001D98  0000              add [eax],al
00001D9A  0000              add [eax],al
00001D9C  0000              add [eax],al
00001D9E  0000              add [eax],al
00001DA0  0000              add [eax],al
00001DA2  0000              add [eax],al
00001DA4  0000              add [eax],al
00001DA6  0000              add [eax],al
00001DA8  0000              add [eax],al
00001DAA  0000              add [eax],al
00001DAC  0000              add [eax],al
00001DAE  0000              add [eax],al
00001DB0  0000              add [eax],al
00001DB2  0000              add [eax],al
00001DB4  0000              add [eax],al
00001DB6  0000              add [eax],al
00001DB8  0000              add [eax],al
00001DBA  0000              add [eax],al
00001DBC  0000              add [eax],al
00001DBE  0000              add [eax],al
00001DC0  0000              add [eax],al
00001DC2  0000              add [eax],al
00001DC4  0000              add [eax],al
00001DC6  0000              add [eax],al
00001DC8  0000              add [eax],al
00001DCA  0000              add [eax],al
00001DCC  0000              add [eax],al
00001DCE  0000              add [eax],al
00001DD0  0000              add [eax],al
00001DD2  0000              add [eax],al
00001DD4  0000              add [eax],al
00001DD6  0000              add [eax],al
00001DD8  0000              add [eax],al
00001DDA  0000              add [eax],al
00001DDC  0000              add [eax],al
00001DDE  0000              add [eax],al
00001DE0  0000              add [eax],al
00001DE2  0000              add [eax],al
00001DE4  0000              add [eax],al
00001DE6  0000              add [eax],al
00001DE8  0000              add [eax],al
00001DEA  0000              add [eax],al
00001DEC  0000              add [eax],al
00001DEE  0000              add [eax],al
00001DF0  0000              add [eax],al
00001DF2  0000              add [eax],al
00001DF4  0000              add [eax],al
00001DF6  0000              add [eax],al
00001DF8  0000              add [eax],al
00001DFA  0000              add [eax],al
00001DFC  0000              add [eax],al
00001DFE  0000              add [eax],al
00001E00  0000              add [eax],al
00001E02  0000              add [eax],al
00001E04  0000              add [eax],al
00001E06  0000              add [eax],al
00001E08  0000              add [eax],al
00001E0A  0000              add [eax],al
00001E0C  0000              add [eax],al
00001E0E  0000              add [eax],al
00001E10  0000              add [eax],al
00001E12  0000              add [eax],al
00001E14  0000              add [eax],al
00001E16  0000              add [eax],al
00001E18  0000              add [eax],al
00001E1A  0000              add [eax],al
00001E1C  0000              add [eax],al
00001E1E  0000              add [eax],al
00001E20  0000              add [eax],al
00001E22  0000              add [eax],al
00001E24  0000              add [eax],al
00001E26  0000              add [eax],al
00001E28  0000              add [eax],al
00001E2A  0000              add [eax],al
00001E2C  0000              add [eax],al
00001E2E  0000              add [eax],al
00001E30  0000              add [eax],al
00001E32  0000              add [eax],al
00001E34  0000              add [eax],al
00001E36  0000              add [eax],al
00001E38  0000              add [eax],al
00001E3A  0000              add [eax],al
00001E3C  0000              add [eax],al
00001E3E  0000              add [eax],al
00001E40  0000              add [eax],al
00001E42  0000              add [eax],al
00001E44  0000              add [eax],al
00001E46  0000              add [eax],al
00001E48  0000              add [eax],al
00001E4A  0000              add [eax],al
00001E4C  0000              add [eax],al
00001E4E  0000              add [eax],al
00001E50  0000              add [eax],al
00001E52  0000              add [eax],al
00001E54  0000              add [eax],al
00001E56  0000              add [eax],al
00001E58  0000              add [eax],al
00001E5A  0000              add [eax],al
00001E5C  0000              add [eax],al
00001E5E  0000              add [eax],al
00001E60  0000              add [eax],al
00001E62  0000              add [eax],al
00001E64  0000              add [eax],al
00001E66  0000              add [eax],al
00001E68  0000              add [eax],al
00001E6A  0000              add [eax],al
00001E6C  0000              add [eax],al
00001E6E  0000              add [eax],al
00001E70  0000              add [eax],al
00001E72  0000              add [eax],al
00001E74  0000              add [eax],al
00001E76  0000              add [eax],al
00001E78  0000              add [eax],al
00001E7A  0000              add [eax],al
00001E7C  0000              add [eax],al
00001E7E  0000              add [eax],al
00001E80  0000              add [eax],al
00001E82  0000              add [eax],al
00001E84  0000              add [eax],al
00001E86  0000              add [eax],al
00001E88  0000              add [eax],al
00001E8A  0000              add [eax],al
00001E8C  0000              add [eax],al
00001E8E  0000              add [eax],al
00001E90  0000              add [eax],al
00001E92  0000              add [eax],al
00001E94  0000              add [eax],al
00001E96  0000              add [eax],al
00001E98  0000              add [eax],al
00001E9A  0000              add [eax],al
00001E9C  0000              add [eax],al
00001E9E  0000              add [eax],al
00001EA0  0000              add [eax],al
00001EA2  0000              add [eax],al
00001EA4  0000              add [eax],al
00001EA6  0000              add [eax],al
00001EA8  0000              add [eax],al
00001EAA  0000              add [eax],al
00001EAC  0000              add [eax],al
00001EAE  0000              add [eax],al
00001EB0  0000              add [eax],al
00001EB2  0000              add [eax],al
00001EB4  0000              add [eax],al
00001EB6  0000              add [eax],al
00001EB8  0000              add [eax],al
00001EBA  0000              add [eax],al
00001EBC  0000              add [eax],al
00001EBE  0000              add [eax],al
00001EC0  0000              add [eax],al
00001EC2  0000              add [eax],al
00001EC4  0000              add [eax],al
00001EC6  0000              add [eax],al
00001EC8  0000              add [eax],al
00001ECA  0000              add [eax],al
00001ECC  0000              add [eax],al
00001ECE  0000              add [eax],al
00001ED0  0000              add [eax],al
00001ED2  0000              add [eax],al
00001ED4  0000              add [eax],al
00001ED6  0000              add [eax],al
00001ED8  0000              add [eax],al
00001EDA  0000              add [eax],al
00001EDC  0000              add [eax],al
00001EDE  0000              add [eax],al
00001EE0  0000              add [eax],al
00001EE2  0000              add [eax],al
00001EE4  0000              add [eax],al
00001EE6  0000              add [eax],al
00001EE8  0000              add [eax],al
00001EEA  0000              add [eax],al
00001EEC  0000              add [eax],al
00001EEE  0000              add [eax],al
00001EF0  0000              add [eax],al
00001EF2  0000              add [eax],al
00001EF4  0000              add [eax],al
00001EF6  0000              add [eax],al
00001EF8  0000              add [eax],al
00001EFA  0000              add [eax],al
00001EFC  0000              add [eax],al
00001EFE  0000              add [eax],al
00001F00  0000              add [eax],al
00001F02  0000              add [eax],al
00001F04  0000              add [eax],al
00001F06  0000              add [eax],al
00001F08  0000              add [eax],al
00001F0A  0000              add [eax],al
00001F0C  0000              add [eax],al
00001F0E  0000              add [eax],al
00001F10  0000              add [eax],al
00001F12  0000              add [eax],al
00001F14  0000              add [eax],al
00001F16  0000              add [eax],al
00001F18  0000              add [eax],al
00001F1A  0000              add [eax],al
00001F1C  0000              add [eax],al
00001F1E  0000              add [eax],al
00001F20  0000              add [eax],al
00001F22  0000              add [eax],al
00001F24  0000              add [eax],al
00001F26  0000              add [eax],al
00001F28  0000              add [eax],al
00001F2A  0000              add [eax],al
00001F2C  0000              add [eax],al
00001F2E  0000              add [eax],al
00001F30  0000              add [eax],al
00001F32  0000              add [eax],al
00001F34  0000              add [eax],al
00001F36  0000              add [eax],al
00001F38  0000              add [eax],al
00001F3A  0000              add [eax],al
00001F3C  0000              add [eax],al
00001F3E  0000              add [eax],al
00001F40  0000              add [eax],al
00001F42  0000              add [eax],al
00001F44  0000              add [eax],al
00001F46  0000              add [eax],al
00001F48  0000              add [eax],al
00001F4A  0000              add [eax],al
00001F4C  0000              add [eax],al
00001F4E  0000              add [eax],al
00001F50  0000              add [eax],al
00001F52  0000              add [eax],al
00001F54  0000              add [eax],al
00001F56  0000              add [eax],al
00001F58  0000              add [eax],al
00001F5A  0000              add [eax],al
00001F5C  0000              add [eax],al
00001F5E  0000              add [eax],al
00001F60  0000              add [eax],al
00001F62  0000              add [eax],al
00001F64  0000              add [eax],al
00001F66  0000              add [eax],al
00001F68  0000              add [eax],al
00001F6A  0000              add [eax],al
00001F6C  0000              add [eax],al
00001F6E  0000              add [eax],al
00001F70  0000              add [eax],al
00001F72  0000              add [eax],al
00001F74  0000              add [eax],al
00001F76  0000              add [eax],al
00001F78  0000              add [eax],al
00001F7A  0000              add [eax],al
00001F7C  0000              add [eax],al
00001F7E  0000              add [eax],al
00001F80  0000              add [eax],al
00001F82  0000              add [eax],al
00001F84  0000              add [eax],al
00001F86  0000              add [eax],al
00001F88  0000              add [eax],al
00001F8A  0000              add [eax],al
00001F8C  0000              add [eax],al
00001F8E  0000              add [eax],al
00001F90  0000              add [eax],al
00001F92  0000              add [eax],al
00001F94  0000              add [eax],al
00001F96  0000              add [eax],al
00001F98  0000              add [eax],al
00001F9A  0000              add [eax],al
00001F9C  0000              add [eax],al
00001F9E  0000              add [eax],al
00001FA0  0000              add [eax],al
00001FA2  0000              add [eax],al
00001FA4  0000              add [eax],al
00001FA6  0000              add [eax],al
00001FA8  0000              add [eax],al
00001FAA  0000              add [eax],al
00001FAC  0000              add [eax],al
00001FAE  0000              add [eax],al
00001FB0  0000              add [eax],al
00001FB2  0000              add [eax],al
00001FB4  0000              add [eax],al
00001FB6  0000              add [eax],al
00001FB8  0000              add [eax],al
00001FBA  0000              add [eax],al
00001FBC  0000              add [eax],al
00001FBE  0000              add [eax],al
00001FC0  0000              add [eax],al
00001FC2  0000              add [eax],al
00001FC4  0000              add [eax],al
00001FC6  0000              add [eax],al
00001FC8  0000              add [eax],al
00001FCA  0000              add [eax],al
00001FCC  0000              add [eax],al
00001FCE  0000              add [eax],al
00001FD0  0000              add [eax],al
00001FD2  0000              add [eax],al
00001FD4  0000              add [eax],al
00001FD6  0000              add [eax],al
00001FD8  0000              add [eax],al
00001FDA  0000              add [eax],al
00001FDC  0000              add [eax],al
00001FDE  0000              add [eax],al
00001FE0  0000              add [eax],al
00001FE2  0000              add [eax],al
00001FE4  0000              add [eax],al
00001FE6  0000              add [eax],al
00001FE8  0000              add [eax],al
00001FEA  0000              add [eax],al
00001FEC  0000              add [eax],al
00001FEE  0000              add [eax],al
00001FF0  0000              add [eax],al
00001FF2  0000              add [eax],al
00001FF4  0000              add [eax],al
00001FF6  0000              add [eax],al
00001FF8  0000              add [eax],al
00001FFA  0000              add [eax],al
00001FFC  0000              add [eax],al
00001FFE  0000              add [eax],al
00002000  7923              jns 0x2025
00002002  0000              add [eax],al
00002004  8A23              mov ah,[ebx]
00002006  0000              add [eax],al
00002008  90                nop
00002009  2300              and eax,[eax]
0000200B  00A7230000B2      add [edi-0x4dffffdd],ah
00002011  2300              and eax,[eax]
00002013  00C9              add cl,cl
00002015  2300              and eax,[eax]
00002017  00D7              add bh,dl
00002019  2300              and eax,[eax]
0000201B  00E6              add dh,ah
0000201D  2300              and eax,[eax]
0000201F  00F5              add ch,dh
00002021  2300              and eax,[eax]
00002023  0002              add [edx],al
00002025  2400              and al,0x0
00002027  001E              add [esi],bl
00002029  2400              and al,0x0
0000202B  0026              add [esi],ah
0000202D  2400              and al,0x0
0000202F  003A              add [edx],bh
00002031  2400              and al,0x0
00002033  004624            add [esi+0x24],al
00002036  0000              add [eax],al
00002038  5F                pop edi
00002039  2400              and al,0x0
0000203B  006A24            add [edx+0x24],ch
0000203E  0000              add [eax],al
00002040  7C24              jl 0x2066
00002042  0000              add [eax],al
00002044  8E2400            mov fs,[eax+eax]
00002047  009E240000AC      add [esi-0x53ffffdc],bl
0000204D  2400              and al,0x0
0000204F  00AC240000AC24    add [esp+0x24ac0000],ch
00002056  0000              add [eax],al
00002058  AC                lodsb
00002059  2400              and al,0x0
0000205B  00AC240000AC24    add [esp+0x24ac0000],ch
00002062  0000              add [eax],al
00002064  AC                lodsb
00002065  2400              and al,0x0
00002067  00AC240000AC24    add [esp+0x24ac0000],ch
0000206E  0000              add [eax],al
00002070  AC                lodsb
00002071  2400              and al,0x0
00002073  00AC240000AC24    add [esp+0x24ac0000],ch
0000207A  0000              add [eax],al
0000207C  AC                lodsb
0000207D  2400              and al,0x0
0000207F  00                db 0x00
